
lu-nc-lc:     file format elf64-x86-64


Disassembly of section .init:

0000000000400e38 <_init>:
  400e38:	48 83 ec 08          	sub    $0x8,%rsp
  400e3c:	48 8b 05 b5 81 20 00 	mov    0x2081b5(%rip),%rax        # 608ff8 <__gmon_start__>
  400e43:	48 85 c0             	test   %rax,%rax
  400e46:	74 02                	je     400e4a <_init+0x12>
  400e48:	ff d0                	callq  *%rax
  400e4a:	48 83 c4 08          	add    $0x8,%rsp
  400e4e:	c3                   	retq   

Disassembly of section .plt:

0000000000400e50 <.plt>:
  400e50:	ff 35 b2 81 20 00    	pushq  0x2081b2(%rip)        # 609008 <_GLOBAL_OFFSET_TABLE_+0x8>
  400e56:	ff 25 b4 81 20 00    	jmpq   *0x2081b4(%rip)        # 609010 <_GLOBAL_OFFSET_TABLE_+0x10>
  400e5c:	0f 1f 40 00          	nopl   0x0(%rax)

0000000000400e60 <free@plt>:
  400e60:	ff 25 b2 81 20 00    	jmpq   *0x2081b2(%rip)        # 609018 <free@GLIBC_2.2.5>
  400e66:	68 00 00 00 00       	pushq  $0x0
  400e6b:	e9 e0 ff ff ff       	jmpq   400e50 <.plt>

0000000000400e70 <putchar@plt>:
  400e70:	ff 25 aa 81 20 00    	jmpq   *0x2081aa(%rip)        # 609020 <putchar@GLIBC_2.2.5>
  400e76:	68 01 00 00 00       	pushq  $0x1
  400e7b:	e9 d0 ff ff ff       	jmpq   400e50 <.plt>

0000000000400e80 <pthread_create@plt>:
  400e80:	ff 25 a2 81 20 00    	jmpq   *0x2081a2(%rip)        # 609028 <pthread_create@GLIBC_2.2.5>
  400e86:	68 02 00 00 00       	pushq  $0x2
  400e8b:	e9 c0 ff ff ff       	jmpq   400e50 <.plt>

0000000000400e90 <__errno_location@plt>:
  400e90:	ff 25 9a 81 20 00    	jmpq   *0x20819a(%rip)        # 609030 <__errno_location@GLIBC_2.2.5>
  400e96:	68 03 00 00 00       	pushq  $0x3
  400e9b:	e9 b0 ff ff ff       	jmpq   400e50 <.plt>

0000000000400ea0 <pthread_cond_broadcast@plt>:
  400ea0:	ff 25 92 81 20 00    	jmpq   *0x208192(%rip)        # 609038 <pthread_cond_broadcast@GLIBC_2.3.2>
  400ea6:	68 04 00 00 00       	pushq  $0x4
  400eab:	e9 a0 ff ff ff       	jmpq   400e50 <.plt>

0000000000400eb0 <puts@plt>:
  400eb0:	ff 25 8a 81 20 00    	jmpq   *0x20818a(%rip)        # 609040 <puts@GLIBC_2.2.5>
  400eb6:	68 05 00 00 00       	pushq  $0x5
  400ebb:	e9 90 ff ff ff       	jmpq   400e50 <.plt>

0000000000400ec0 <clock_gettime@plt>:
  400ec0:	ff 25 82 81 20 00    	jmpq   *0x208182(%rip)        # 609048 <clock_gettime@GLIBC_2.17>
  400ec6:	68 06 00 00 00       	pushq  $0x6
  400ecb:	e9 80 ff ff ff       	jmpq   400e50 <.plt>

0000000000400ed0 <pthread_cond_wait@plt>:
  400ed0:	ff 25 7a 81 20 00    	jmpq   *0x20817a(%rip)        # 609050 <pthread_cond_wait@GLIBC_2.3.2>
  400ed6:	68 07 00 00 00       	pushq  $0x7
  400edb:	e9 70 ff ff ff       	jmpq   400e50 <.plt>

0000000000400ee0 <fclose@plt>:
  400ee0:	ff 25 72 81 20 00    	jmpq   *0x208172(%rip)        # 609058 <fclose@GLIBC_2.2.5>
  400ee6:	68 08 00 00 00       	pushq  $0x8
  400eeb:	e9 60 ff ff ff       	jmpq   400e50 <.plt>

0000000000400ef0 <pthread_setcancelstate@plt>:
  400ef0:	ff 25 6a 81 20 00    	jmpq   *0x20816a(%rip)        # 609060 <pthread_setcancelstate@GLIBC_2.2.5>
  400ef6:	68 09 00 00 00       	pushq  $0x9
  400efb:	e9 50 ff ff ff       	jmpq   400e50 <.plt>

0000000000400f00 <pthread_setaffinity_np@plt>:
  400f00:	ff 25 62 81 20 00    	jmpq   *0x208162(%rip)        # 609068 <pthread_setaffinity_np@GLIBC_2.3.4>
  400f06:	68 0a 00 00 00       	pushq  $0xa
  400f0b:	e9 40 ff ff ff       	jmpq   400e50 <.plt>

0000000000400f10 <printf@plt>:
  400f10:	ff 25 5a 81 20 00    	jmpq   *0x20815a(%rip)        # 609070 <printf@GLIBC_2.2.5>
  400f16:	68 0b 00 00 00       	pushq  $0xb
  400f1b:	e9 30 ff ff ff       	jmpq   400e50 <.plt>

0000000000400f20 <pthread_mutex_destroy@plt>:
  400f20:	ff 25 52 81 20 00    	jmpq   *0x208152(%rip)        # 609078 <pthread_mutex_destroy@GLIBC_2.2.5>
  400f26:	68 0c 00 00 00       	pushq  $0xc
  400f2b:	e9 20 ff ff ff       	jmpq   400e50 <.plt>

0000000000400f30 <gettimeofday@plt>:
  400f30:	ff 25 4a 81 20 00    	jmpq   *0x20814a(%rip)        # 609080 <gettimeofday@GLIBC_2.2.5>
  400f36:	68 0d 00 00 00       	pushq  $0xd
  400f3b:	e9 10 ff ff ff       	jmpq   400e50 <.plt>

0000000000400f40 <memset@plt>:
  400f40:	ff 25 42 81 20 00    	jmpq   *0x208142(%rip)        # 609088 <memset@GLIBC_2.2.5>
  400f46:	68 0e 00 00 00       	pushq  $0xe
  400f4b:	e9 00 ff ff ff       	jmpq   400e50 <.plt>

0000000000400f50 <fprintf@plt>:
  400f50:	ff 25 3a 81 20 00    	jmpq   *0x20813a(%rip)        # 609090 <fprintf@GLIBC_2.2.5>
  400f56:	68 0f 00 00 00       	pushq  $0xf
  400f5b:	e9 f0 fe ff ff       	jmpq   400e50 <.plt>

0000000000400f60 <syscall@plt>:
  400f60:	ff 25 32 81 20 00    	jmpq   *0x208132(%rip)        # 609098 <syscall@GLIBC_2.2.5>
  400f66:	68 10 00 00 00       	pushq  $0x10
  400f6b:	e9 e0 fe ff ff       	jmpq   400e50 <.plt>

0000000000400f70 <strtol@plt>:
  400f70:	ff 25 2a 81 20 00    	jmpq   *0x20812a(%rip)        # 6090a0 <strtol@GLIBC_2.2.5>
  400f76:	68 11 00 00 00       	pushq  $0x11
  400f7b:	e9 d0 fe ff ff       	jmpq   400e50 <.plt>

0000000000400f80 <memcpy@plt>:
  400f80:	ff 25 22 81 20 00    	jmpq   *0x208122(%rip)        # 6090a8 <memcpy@GLIBC_2.14>
  400f86:	68 12 00 00 00       	pushq  $0x12
  400f8b:	e9 c0 fe ff ff       	jmpq   400e50 <.plt>

0000000000400f90 <pthread_cond_init@plt>:
  400f90:	ff 25 1a 81 20 00    	jmpq   *0x20811a(%rip)        # 6090b0 <pthread_cond_init@GLIBC_2.3.2>
  400f96:	68 13 00 00 00       	pushq  $0x13
  400f9b:	e9 b0 fe ff ff       	jmpq   400e50 <.plt>

0000000000400fa0 <pthread_mutex_unlock@plt>:
  400fa0:	ff 25 12 81 20 00    	jmpq   *0x208112(%rip)        # 6090b8 <pthread_mutex_unlock@GLIBC_2.2.5>
  400fa6:	68 14 00 00 00       	pushq  $0x14
  400fab:	e9 a0 fe ff ff       	jmpq   400e50 <.plt>

0000000000400fb0 <malloc@plt>:
  400fb0:	ff 25 0a 81 20 00    	jmpq   *0x20810a(%rip)        # 6090c0 <malloc@GLIBC_2.2.5>
  400fb6:	68 15 00 00 00       	pushq  $0x15
  400fbb:	e9 90 fe ff ff       	jmpq   400e50 <.plt>

0000000000400fc0 <lrand48@plt>:
  400fc0:	ff 25 02 81 20 00    	jmpq   *0x208102(%rip)        # 6090c8 <lrand48@GLIBC_2.2.5>
  400fc6:	68 16 00 00 00       	pushq  $0x16
  400fcb:	e9 80 fe ff ff       	jmpq   400e50 <.plt>

0000000000400fd0 <srand48@plt>:
  400fd0:	ff 25 fa 80 20 00    	jmpq   *0x2080fa(%rip)        # 6090d0 <srand48@GLIBC_2.2.5>
  400fd6:	68 17 00 00 00       	pushq  $0x17
  400fdb:	e9 70 fe ff ff       	jmpq   400e50 <.plt>

0000000000400fe0 <pthread_self@plt>:
  400fe0:	ff 25 f2 80 20 00    	jmpq   *0x2080f2(%rip)        # 6090d8 <pthread_self@GLIBC_2.2.5>
  400fe6:	68 18 00 00 00       	pushq  $0x18
  400feb:	e9 60 fe ff ff       	jmpq   400e50 <.plt>

0000000000400ff0 <fopen@plt>:
  400ff0:	ff 25 ea 80 20 00    	jmpq   *0x2080ea(%rip)        # 6090e0 <fopen@GLIBC_2.2.5>
  400ff6:	68 19 00 00 00       	pushq  $0x19
  400ffb:	e9 50 fe ff ff       	jmpq   400e50 <.plt>

0000000000401000 <pthread_join@plt>:
  401000:	ff 25 e2 80 20 00    	jmpq   *0x2080e2(%rip)        # 6090e8 <pthread_join@GLIBC_2.2.5>
  401006:	68 1a 00 00 00       	pushq  $0x1a
  40100b:	e9 40 fe ff ff       	jmpq   400e50 <.plt>

0000000000401010 <getopt@plt>:
  401010:	ff 25 da 80 20 00    	jmpq   *0x2080da(%rip)        # 6090f0 <getopt@GLIBC_2.2.5>
  401016:	68 1b 00 00 00       	pushq  $0x1b
  40101b:	e9 30 fe ff ff       	jmpq   400e50 <.plt>

0000000000401020 <exit@plt>:
  401020:	ff 25 d2 80 20 00    	jmpq   *0x2080d2(%rip)        # 6090f8 <exit@GLIBC_2.2.5>
  401026:	68 1c 00 00 00       	pushq  $0x1c
  40102b:	e9 20 fe ff ff       	jmpq   400e50 <.plt>

0000000000401030 <sqrt@plt>:
  401030:	ff 25 ca 80 20 00    	jmpq   *0x2080ca(%rip)        # 609100 <sqrt@GLIBC_2.2.5>
  401036:	68 1d 00 00 00       	pushq  $0x1d
  40103b:	e9 10 fe ff ff       	jmpq   400e50 <.plt>

0000000000401040 <strerror@plt>:
  401040:	ff 25 c2 80 20 00    	jmpq   *0x2080c2(%rip)        # 609108 <strerror@GLIBC_2.2.5>
  401046:	68 1e 00 00 00       	pushq  $0x1e
  40104b:	e9 00 fe ff ff       	jmpq   400e50 <.plt>

0000000000401050 <pthread_mutex_init@plt>:
  401050:	ff 25 ba 80 20 00    	jmpq   *0x2080ba(%rip)        # 609110 <pthread_mutex_init@GLIBC_2.2.5>
  401056:	68 1f 00 00 00       	pushq  $0x1f
  40105b:	e9 f0 fd ff ff       	jmpq   400e50 <.plt>

0000000000401060 <pthread_mutex_lock@plt>:
  401060:	ff 25 b2 80 20 00    	jmpq   *0x2080b2(%rip)        # 609118 <pthread_mutex_lock@GLIBC_2.2.5>
  401066:	68 20 00 00 00       	pushq  $0x20
  40106b:	e9 e0 fd ff ff       	jmpq   400e50 <.plt>

Disassembly of section .text:

0000000000401070 <_start>:
  401070:	31 ed                	xor    %ebp,%ebp
  401072:	49 89 d1             	mov    %rdx,%r9
  401075:	5e                   	pop    %rsi
  401076:	48 89 e2             	mov    %rsp,%rdx
  401079:	48 83 e4 f0          	and    $0xfffffffffffffff0,%rsp
  40107d:	50                   	push   %rax
  40107e:	54                   	push   %rsp
  40107f:	49 c7 c0 50 74 40 00 	mov    $0x407450,%r8
  401086:	48 c7 c1 e0 73 40 00 	mov    $0x4073e0,%rcx
  40108d:	48 c7 c7 30 13 40 00 	mov    $0x401330,%rdi
  401094:	ff 15 56 7f 20 00    	callq  *0x207f56(%rip)        # 608ff0 <__libc_start_main@GLIBC_2.2.5>
  40109a:	f4                   	hlt    
  40109b:	0f 1f 44 00 00       	nopl   0x0(%rax,%rax,1)

00000000004010a0 <_dl_relocate_static_pie>:
  4010a0:	f3 c3                	repz retq 
  4010a2:	66 2e 0f 1f 84 00 00 	nopw   %cs:0x0(%rax,%rax,1)
  4010a9:	00 00 00 
  4010ac:	0f 1f 40 00          	nopl   0x0(%rax)

00000000004010b0 <deregister_tm_clones>:
  4010b0:	55                   	push   %rbp
  4010b1:	b8 50 91 60 00       	mov    $0x609150,%eax
  4010b6:	48 3d 50 91 60 00    	cmp    $0x609150,%rax
  4010bc:	48 89 e5             	mov    %rsp,%rbp
  4010bf:	74 17                	je     4010d8 <deregister_tm_clones+0x28>
  4010c1:	b8 00 00 00 00       	mov    $0x0,%eax
  4010c6:	48 85 c0             	test   %rax,%rax
  4010c9:	74 0d                	je     4010d8 <deregister_tm_clones+0x28>
  4010cb:	5d                   	pop    %rbp
  4010cc:	bf 50 91 60 00       	mov    $0x609150,%edi
  4010d1:	ff e0                	jmpq   *%rax
  4010d3:	0f 1f 44 00 00       	nopl   0x0(%rax,%rax,1)
  4010d8:	5d                   	pop    %rbp
  4010d9:	c3                   	retq   
  4010da:	66 0f 1f 44 00 00    	nopw   0x0(%rax,%rax,1)

00000000004010e0 <register_tm_clones>:
  4010e0:	be 50 91 60 00       	mov    $0x609150,%esi
  4010e5:	55                   	push   %rbp
  4010e6:	48 81 ee 50 91 60 00 	sub    $0x609150,%rsi
  4010ed:	48 89 e5             	mov    %rsp,%rbp
  4010f0:	48 c1 fe 03          	sar    $0x3,%rsi
  4010f4:	48 89 f0             	mov    %rsi,%rax
  4010f7:	48 c1 e8 3f          	shr    $0x3f,%rax
  4010fb:	48 01 c6             	add    %rax,%rsi
  4010fe:	48 d1 fe             	sar    %rsi
  401101:	74 15                	je     401118 <register_tm_clones+0x38>
  401103:	b8 00 00 00 00       	mov    $0x0,%eax
  401108:	48 85 c0             	test   %rax,%rax
  40110b:	74 0b                	je     401118 <register_tm_clones+0x38>
  40110d:	5d                   	pop    %rbp
  40110e:	bf 50 91 60 00       	mov    $0x609150,%edi
  401113:	ff e0                	jmpq   *%rax
  401115:	0f 1f 00             	nopl   (%rax)
  401118:	5d                   	pop    %rbp
  401119:	c3                   	retq   
  40111a:	66 0f 1f 44 00 00    	nopw   0x0(%rax,%rax,1)

0000000000401120 <__do_global_dtors_aux>:
  401120:	80 3d 61 80 20 00 00 	cmpb   $0x0,0x208061(%rip)        # 609188 <completed.7698>
  401127:	75 17                	jne    401140 <__do_global_dtors_aux+0x20>
  401129:	55                   	push   %rbp
  40112a:	48 89 e5             	mov    %rsp,%rbp
  40112d:	e8 7e ff ff ff       	callq  4010b0 <deregister_tm_clones>
  401132:	c6 05 4f 80 20 00 01 	movb   $0x1,0x20804f(%rip)        # 609188 <completed.7698>
  401139:	5d                   	pop    %rbp
  40113a:	c3                   	retq   
  40113b:	0f 1f 44 00 00       	nopl   0x0(%rax,%rax,1)
  401140:	f3 c3                	repz retq 
  401142:	0f 1f 40 00          	nopl   0x0(%rax)
  401146:	66 2e 0f 1f 84 00 00 	nopw   %cs:0x0(%rax,%rax,1)
  40114d:	00 00 00 

0000000000401150 <frame_dummy>:
  401150:	55                   	push   %rbp
  401151:	48 89 e5             	mov    %rsp,%rbp
  401154:	5d                   	pop    %rbp
  401155:	eb 89                	jmp    4010e0 <register_tm_clones>
  401157:	66 0f 1f 84 00 00 00 	nopw   0x0(%rax,%rax,1)
  40115e:	00 00 

0000000000401160 <init_stats>:
  401160:	55                   	push   %rbp
  401161:	41 56                	push   %r14
  401163:	53                   	push   %rbx
  401164:	48 81 ec 80 00 00 00 	sub    $0x80,%rsp
  40116b:	bf ba 00 00 00       	mov    $0xba,%edi
  401170:	31 c0                	xor    %eax,%eax
  401172:	e8 e9 fd ff ff       	callq  400f60 <syscall@plt>
  401177:	64 89 04 25 e0 ff ff 	mov    %eax,%fs:0xffffffffffffffe0
  40117e:	ff 
  40117f:	4c 63 f0             	movslq %eax,%r14
  401182:	48 c7 44 24 78 00 00 	movq   $0x0,0x78(%rsp)
  401189:	00 00 
  40118b:	48 c7 44 24 70 00 00 	movq   $0x0,0x70(%rsp)
  401192:	00 00 
  401194:	48 c7 44 24 68 00 00 	movq   $0x0,0x68(%rsp)
  40119b:	00 00 
  40119d:	48 c7 44 24 60 00 00 	movq   $0x0,0x60(%rsp)
  4011a4:	00 00 
  4011a6:	48 c7 44 24 58 00 00 	movq   $0x0,0x58(%rsp)
  4011ad:	00 00 
  4011af:	48 c7 44 24 50 00 00 	movq   $0x0,0x50(%rsp)
  4011b6:	00 00 
  4011b8:	48 c7 44 24 48 00 00 	movq   $0x0,0x48(%rsp)
  4011bf:	00 00 
  4011c1:	48 c7 44 24 40 00 00 	movq   $0x0,0x40(%rsp)
  4011c8:	00 00 
  4011ca:	48 c7 44 24 38 00 00 	movq   $0x0,0x38(%rsp)
  4011d1:	00 00 
  4011d3:	48 c7 44 24 30 00 00 	movq   $0x0,0x30(%rsp)
  4011da:	00 00 
  4011dc:	48 c7 44 24 28 00 00 	movq   $0x0,0x28(%rsp)
  4011e3:	00 00 
  4011e5:	48 c7 44 24 20 00 00 	movq   $0x0,0x20(%rsp)
  4011ec:	00 00 
  4011ee:	48 c7 44 24 18 00 00 	movq   $0x0,0x18(%rsp)
  4011f5:	00 00 
  4011f7:	48 c7 44 24 10 00 00 	movq   $0x0,0x10(%rsp)
  4011fe:	00 00 
  401200:	48 b9 13 e4 29 41 9e 	movabs $0x29e4129e4129e413,%rcx
  401207:	12 e4 29 
  40120a:	4c 89 f0             	mov    %r14,%rax
  40120d:	48 f7 e1             	mul    %rcx
  401210:	48 c7 44 24 08 00 00 	movq   $0x0,0x8(%rsp)
  401217:	00 00 
  401219:	4c 89 f0             	mov    %r14,%rax
  40121c:	48 29 d0             	sub    %rdx,%rax
  40121f:	48 d1 e8             	shr    %rax
  401222:	48 01 d0             	add    %rdx,%rax
  401225:	48 c1 e8 05          	shr    $0x5,%rax
  401229:	48 6b c0 37          	imul   $0x37,%rax,%rax
  40122d:	4c 89 f3             	mov    %r14,%rbx
  401230:	48 29 c3             	sub    %rax,%rbx
  401233:	b8 01 00 00 00       	mov    $0x1,%eax
  401238:	89 d9                	mov    %ebx,%ecx
  40123a:	48 d3 e0             	shl    %cl,%rax
  40123d:	48 89 04 24          	mov    %rax,(%rsp)
  401241:	e8 9a fd ff ff       	callq  400fe0 <pthread_self@plt>
  401246:	48 89 c5             	mov    %rax,%rbp
  401249:	bf 50 75 40 00       	mov    $0x407550,%edi
  40124e:	4c 89 f6             	mov    %r14,%rsi
  401251:	89 da                	mov    %ebx,%edx
  401253:	31 c0                	xor    %eax,%eax
  401255:	e8 b6 fc ff ff       	callq  400f10 <printf@plt>
  40125a:	48 89 e2             	mov    %rsp,%rdx
  40125d:	be 80 00 00 00       	mov    $0x80,%esi
  401262:	48 89 ef             	mov    %rbp,%rdi
  401265:	e8 96 fc ff ff       	callq  400f00 <pthread_setaffinity_np@plt>
  40126a:	85 c0                	test   %eax,%eax
  40126c:	74 24                	je     401292 <init_stats+0x132>
  40126e:	89 c5                	mov    %eax,%ebp
  401270:	e8 1b fc ff ff       	callq  400e90 <__errno_location@plt>
  401275:	8b 38                	mov    (%rax),%edi
  401277:	e8 c4 fd ff ff       	callq  401040 <strerror@plt>
  40127c:	bf 6d 75 40 00       	mov    $0x40756d,%edi
  401281:	4c 89 f6             	mov    %r14,%rsi
  401284:	89 da                	mov    %ebx,%edx
  401286:	89 e9                	mov    %ebp,%ecx
  401288:	49 89 c0             	mov    %rax,%r8
  40128b:	31 c0                	xor    %eax,%eax
  40128d:	e8 7e fc ff ff       	callq  400f10 <printf@plt>
  401292:	48 81 c4 80 00 00 00 	add    $0x80,%rsp
  401299:	5b                   	pop    %rbx
  40129a:	41 5e                	pop    %r14
  40129c:	5d                   	pop    %rbp
  40129d:	c3                   	retq   
  40129e:	66 90                	xchg   %ax,%ax

00000000004012a0 <compiler_interrupt_handler>:
  4012a0:	64 48 8b 04 25 e8 ff 	mov    %fs:0xffffffffffffffe8,%rax
  4012a7:	ff ff 
  4012a9:	48 85 c0             	test   %rax,%rax
  4012ac:	78 3c                	js     4012ea <compiler_interrupt_handler+0x4a>
  4012ae:	f2 48 0f 2a c0       	cvtsi2sd %rax,%xmm0
  4012b3:	64 f2 0f 59 04 25 c8 	mulsd  %fs:0xffffffffffffffc8,%xmm0
  4012ba:	ff ff ff 
  4012bd:	f2 48 0f 2a cf       	cvtsi2sd %rdi,%xmm1
  4012c2:	f2 0f 58 c8          	addsd  %xmm0,%xmm1
  4012c6:	48 83 c0 01          	add    $0x1,%rax
  4012ca:	0f 57 c0             	xorps  %xmm0,%xmm0
  4012cd:	f2 48 0f 2a c0       	cvtsi2sd %rax,%xmm0
  4012d2:	f2 0f 5e c8          	divsd  %xmm0,%xmm1
  4012d6:	64 f2 0f 11 0c 25 c8 	movsd  %xmm1,%fs:0xffffffffffffffc8
  4012dd:	ff ff ff 
  4012e0:	64 48 89 04 25 e8 ff 	mov    %rax,%fs:0xffffffffffffffe8
  4012e7:	ff ff 
  4012e9:	c3                   	retq   
  4012ea:	48 83 c0 01          	add    $0x1,%rax
  4012ee:	64 48 89 04 25 e8 ff 	mov    %rax,%fs:0xffffffffffffffe8
  4012f5:	ff ff 
  4012f7:	c3                   	retq   
  4012f8:	0f 1f 84 00 00 00 00 	nopl   0x0(%rax,%rax,1)
  4012ff:	00 

0000000000401300 <print_timing_stats>:
  401300:	50                   	push   %rax
  401301:	bf ba 00 00 00       	mov    $0xba,%edi
  401306:	31 c0                	xor    %eax,%eax
  401308:	e8 53 fc ff ff       	callq  400f60 <syscall@plt>
  40130d:	64 f2 0f 10 04 25 c8 	movsd  %fs:0xffffffffffffffc8,%xmm0
  401314:	ff ff ff 
  401317:	bf bd 75 40 00       	mov    $0x4075bd,%edi
  40131c:	48 89 c6             	mov    %rax,%rsi
  40131f:	b0 01                	mov    $0x1,%al
  401321:	59                   	pop    %rcx
  401322:	e9 e9 fb ff ff       	jmpq   400f10 <printf@plt>
  401327:	66 0f 1f 84 00 00 00 	nopw   0x0(%rax,%rax,1)
  40132e:	00 00 

0000000000401330 <main>:
  401330:	55                   	push   %rbp
  401331:	41 57                	push   %r15
  401333:	41 56                	push   %r14
  401335:	41 55                	push   %r13
  401337:	41 54                	push   %r12
  401339:	53                   	push   %rbx
  40133a:	48 81 ec b8 00 00 00 	sub    $0xb8,%rsp
  401341:	49 89 f6             	mov    %rsi,%r14
  401344:	89 fd                	mov    %edi,%ebp
  401346:	e8 15 fe ff ff       	callq  401160 <init_stats>
  40134b:	48 8d bc 24 a8 00 00 	lea    0xa8(%rsp),%rdi
  401352:	00 
  401353:	31 f6                	xor    %esi,%esi
  401355:	e8 d6 fb ff ff       	callq  400f30 <gettimeofday@plt>
  40135a:	48 8d 7c 24 78       	lea    0x78(%rsp),%rdi
  40135f:	31 f6                	xor    %esi,%esi
  401361:	e8 ca fb ff ff       	callq  400f30 <gettimeofday@plt>
  401366:	48 69 44 24 78 40 42 	imul   $0xf4240,0x78(%rsp),%rax
  40136d:	0f 00 
  40136f:	48 03 84 24 80 00 00 	add    0x80(%rsp),%rax
  401376:	00 
  401377:	48 89 84 24 a0 00 00 	mov    %rax,0xa0(%rsp)
  40137e:	00 
  40137f:	ba dc 75 40 00       	mov    $0x4075dc,%edx
  401384:	89 ef                	mov    %ebp,%edi
  401386:	4c 89 f6             	mov    %r14,%rsi
  401389:	e8 82 fc ff ff       	callq  401010 <getopt@plt>
  40138e:	83 f8 ff             	cmp    $0xffffffff,%eax
  401391:	0f 84 01 01 00 00    	je     401498 <main+0x168>
  401397:	89 c3                	mov    %eax,%ebx
  401399:	49 c7 c7 f8 ff ff ff 	mov    $0xfffffffffffffff8,%r15
  4013a0:	49 c7 c4 b0 ff ff ff 	mov    $0xffffffffffffffb0,%r12
  4013a7:	eb 31                	jmp    4013da <main+0xaa>
  4013a9:	31 c0                	xor    %eax,%eax
  4013ab:	48 83 3d dd 7d 20 00 	cmpq   $0x0,0x207ddd(%rip)        # 609190 <test_result>
  4013b2:	00 
  4013b3:	0f 94 c0             	sete   %al
  4013b6:	48 89 05 d3 7d 20 00 	mov    %rax,0x207dd3(%rip)        # 609190 <test_result>
  4013bd:	0f 1f 00             	nopl   (%rax)
  4013c0:	ba dc 75 40 00       	mov    $0x4075dc,%edx
  4013c5:	89 ef                	mov    %ebp,%edi
  4013c7:	4c 89 f6             	mov    %r14,%rsi
  4013ca:	e8 41 fc ff ff       	callq  401010 <getopt@plt>
  4013cf:	89 c3                	mov    %eax,%ebx
  4013d1:	83 f8 ff             	cmp    $0xffffffff,%eax
  4013d4:	0f 84 be 00 00 00    	je     401498 <main+0x168>
  4013da:	64 49 8b 0f          	mov    %fs:(%r15),%rcx
  4013de:	64 49 8b 34 24       	mov    %fs:(%r12),%rsi
  4013e3:	0f 31                	rdtsc  
  4013e5:	48 c1 e2 20          	shl    $0x20,%rdx
  4013e9:	48 09 c2             	or     %rax,%rdx
  4013ec:	48 29 ca             	sub    %rcx,%rdx
  4013ef:	48 39 f2             	cmp    %rsi,%rdx
  4013f2:	72 07                	jb     4013fb <main+0xcb>
  4013f4:	31 c0                	xor    %eax,%eax
  4013f6:	e8 35 5d 00 00       	callq  407130 <concord_rdtsc_func>
  4013fb:	48 63 c3             	movslq %ebx,%rax
  4013fe:	48 83 c0 9e          	add    $0xffffffffffffff9e,%rax
  401402:	48 83 f8 12          	cmp    $0x12,%rax
  401406:	77 b8                	ja     4013c0 <main+0x90>
  401408:	ff 24 c5 88 74 40 00 	jmpq   *0x407488(,%rax,8)
  40140f:	48 8b 3d 4a 7d 20 00 	mov    0x207d4a(%rip),%rdi        # 609160 <optarg@@GLIBC_2.2.5>
  401416:	31 f6                	xor    %esi,%esi
  401418:	ba 0a 00 00 00       	mov    $0xa,%edx
  40141d:	e8 4e fb ff ff       	callq  400f70 <strtol@plt>
  401422:	48 98                	cltq   
  401424:	48 89 05 15 7d 20 00 	mov    %rax,0x207d15(%rip)        # 609140 <block_size>
  40142b:	eb 93                	jmp    4013c0 <main+0x90>
  40142d:	31 c0                	xor    %eax,%eax
  40142f:	48 83 3d 61 7d 20 00 	cmpq   $0x0,0x207d61(%rip)        # 609198 <doprint>
  401436:	00 
  401437:	0f 94 c0             	sete   %al
  40143a:	48 89 05 57 7d 20 00 	mov    %rax,0x207d57(%rip)        # 609198 <doprint>
  401441:	e9 7a ff ff ff       	jmpq   4013c0 <main+0x90>
  401446:	48 8b 3d 13 7d 20 00 	mov    0x207d13(%rip),%rdi        # 609160 <optarg@@GLIBC_2.2.5>
  40144d:	31 f6                	xor    %esi,%esi
  40144f:	ba 0a 00 00 00       	mov    $0xa,%edx
  401454:	e8 17 fb ff ff       	callq  400f70 <strtol@plt>
  401459:	48 98                	cltq   
  40145b:	48 89 05 ce 7c 20 00 	mov    %rax,0x207cce(%rip)        # 609130 <n>
  401462:	e9 59 ff ff ff       	jmpq   4013c0 <main+0x90>
  401467:	48 8b 3d f2 7c 20 00 	mov    0x207cf2(%rip),%rdi        # 609160 <optarg@@GLIBC_2.2.5>
  40146e:	31 f6                	xor    %esi,%esi
  401470:	ba 0a 00 00 00       	mov    $0xa,%edx
  401475:	e8 f6 fa ff ff       	callq  400f70 <strtol@plt>
  40147a:	48 98                	cltq   
  40147c:	48 89 05 b5 7c 20 00 	mov    %rax,0x207cb5(%rip)        # 609138 <P>
  401483:	e9 38 ff ff ff       	jmpq   4013c0 <main+0x90>
  401488:	48 c7 05 0d 7d 20 00 	movq   $0x1,0x207d0d(%rip)        # 6091a0 <dostats>
  40148f:	01 00 00 00 
  401493:	e9 28 ff ff ff       	jmpq   4013c0 <main+0x90>
  401498:	bf 0a 00 00 00       	mov    $0xa,%edi
  40149d:	e8 ce f9 ff ff       	callq  400e70 <putchar@plt>
  4014a2:	bf c8 77 40 00       	mov    $0x4077c8,%edi
  4014a7:	e8 04 fa ff ff       	callq  400eb0 <puts@plt>
  4014ac:	48 8b 15 7d 7c 20 00 	mov    0x207c7d(%rip),%rdx        # 609130 <n>
  4014b3:	bf e7 77 40 00       	mov    $0x4077e7,%edi
  4014b8:	48 89 d6             	mov    %rdx,%rsi
  4014bb:	31 c0                	xor    %eax,%eax
  4014bd:	e8 4e fa ff ff       	callq  400f10 <printf@plt>
  4014c2:	48 8b 35 6f 7c 20 00 	mov    0x207c6f(%rip),%rsi        # 609138 <P>
  4014c9:	bf ff 77 40 00       	mov    $0x4077ff,%edi
  4014ce:	31 c0                	xor    %eax,%eax
  4014d0:	e8 3b fa ff ff       	callq  400f10 <printf@plt>
  4014d5:	48 8b 15 64 7c 20 00 	mov    0x207c64(%rip),%rdx        # 609140 <block_size>
  4014dc:	bf 14 78 40 00       	mov    $0x407814,%edi
  4014e1:	48 89 d6             	mov    %rdx,%rsi
  4014e4:	31 c0                	xor    %eax,%eax
  4014e6:	e8 25 fa ff ff       	callq  400f10 <printf@plt>
  4014eb:	bf 0a 00 00 00       	mov    $0xa,%edi
  4014f0:	e8 7b f9 ff ff       	callq  400e70 <putchar@plt>
  4014f5:	bf 0a 00 00 00       	mov    $0xa,%edi
  4014fa:	e8 71 f9 ff ff       	callq  400e70 <putchar@plt>
  4014ff:	f2 48 0f 2a 05 30 7c 	cvtsi2sdq 0x207c30(%rip),%xmm0        # 609138 <P>
  401506:	20 00 
  401508:	66 0f 57 c9          	xorpd  %xmm1,%xmm1
  40150c:	66 0f 2e c1          	ucomisd %xmm1,%xmm0
  401510:	72 06                	jb     401518 <main+0x1e8>
  401512:	f2 0f 51 c0          	sqrtsd %xmm0,%xmm0
  401516:	eb 05                	jmp    40151d <main+0x1ed>
  401518:	e8 13 fb ff ff       	callq  401030 <sqrt@plt>
  40151d:	f2 48 0f 2c e8       	cvttsd2si %xmm0,%rbp
  401522:	48 8b 1d 0f 7c 20 00 	mov    0x207c0f(%rip),%rbx        # 609138 <P>
  401529:	49 c7 c6 f8 ff ff ff 	mov    $0xfffffffffffffff8,%r14
  401530:	49 c7 c7 b0 ff ff ff 	mov    $0xffffffffffffffb0,%r15
  401537:	eb 1f                	jmp    401558 <main+0x228>
  401539:	0f 1f 80 00 00 00 00 	nopl   0x0(%rax)
  401540:	48 89 d8             	mov    %rbx,%rax
  401543:	48 99                	cqto   
  401545:	48 f7 fd             	idiv   %rbp
  401548:	48 89 c1             	mov    %rax,%rcx
  40154b:	48 0f af cd          	imul   %rbp,%rcx
  40154f:	48 83 c5 ff          	add    $0xffffffffffffffff,%rbp
  401553:	48 39 d9             	cmp    %rbx,%rcx
  401556:	74 22                	je     40157a <main+0x24a>
  401558:	64 49 8b 0e          	mov    %fs:(%r14),%rcx
  40155c:	64 49 8b 37          	mov    %fs:(%r15),%rsi
  401560:	0f 31                	rdtsc  
  401562:	48 c1 e2 20          	shl    $0x20,%rdx
  401566:	48 09 c2             	or     %rax,%rdx
  401569:	48 29 ca             	sub    %rcx,%rdx
  40156c:	48 39 f2             	cmp    %rsi,%rdx
  40156f:	72 cf                	jb     401540 <main+0x210>
  401571:	31 c0                	xor    %eax,%eax
  401573:	e8 b8 5b 00 00       	callq  407130 <concord_rdtsc_func>
  401578:	eb c6                	jmp    401540 <main+0x210>
  40157a:	48 83 c5 01          	add    $0x1,%rbp
  40157e:	48 89 2d 73 7e 20 00 	mov    %rbp,0x207e73(%rip)        # 6093f8 <num_rows>
  401585:	48 89 05 44 7c 20 00 	mov    %rax,0x207c44(%rip)        # 6091d0 <num_cols>
  40158c:	48 8b 3d 9d 7b 20 00 	mov    0x207b9d(%rip),%rdi        # 609130 <n>
  401593:	48 8b 0d a6 7b 20 00 	mov    0x207ba6(%rip),%rcx        # 609140 <block_size>
  40159a:	48 89 f8             	mov    %rdi,%rax
  40159d:	48 99                	cqto   
  40159f:	48 f7 f9             	idiv   %rcx
  4015a2:	48 0f af c8          	imul   %rax,%rcx
  4015a6:	31 d2                	xor    %edx,%edx
  4015a8:	48 39 f9             	cmp    %rdi,%rcx
  4015ab:	0f 95 c2             	setne  %dl
  4015ae:	48 01 c2             	add    %rax,%rdx
  4015b1:	48 89 15 48 7e 20 00 	mov    %rdx,0x207e48(%rip)        # 609400 <nblocks>
  4015b8:	48 8d 2c fd 00 00 00 	lea    0x0(,%rdi,8),%rbp
  4015bf:	00 
  4015c0:	48 0f af fd          	imul   %rbp,%rdi
  4015c4:	e8 e7 f9 ff ff       	callq  400fb0 <malloc@plt>
  4015c9:	48 89 05 18 7e 20 00 	mov    %rax,0x207e18(%rip)        # 6093e8 <a>
  4015d0:	48 85 c0             	test   %rax,%rax
  4015d3:	0f 84 8f 0d 00 00    	je     402368 <main+0x1038>
  4015d9:	48 89 ef             	mov    %rbp,%rdi
  4015dc:	e8 cf f9 ff ff       	callq  400fb0 <malloc@plt>
  4015e1:	48 89 05 f8 7d 20 00 	mov    %rax,0x207df8(%rip)        # 6093e0 <rhs>
  4015e8:	48 85 c0             	test   %rax,%rax
  4015eb:	0f 84 7e 0d 00 00    	je     40236f <main+0x103f>
  4015f1:	bf e0 00 00 00       	mov    $0xe0,%edi
  4015f6:	e8 b5 f9 ff ff       	callq  400fb0 <malloc@plt>
  4015fb:	48 89 c5             	mov    %rax,%rbp
  4015fe:	48 89 05 d3 7b 20 00 	mov    %rax,0x207bd3(%rip)        # 6091d8 <Global>
  401605:	48 c1 e3 03          	shl    $0x3,%rbx
  401609:	48 89 df             	mov    %rbx,%rdi
  40160c:	e8 9f f9 ff ff       	callq  400fb0 <malloc@plt>
  401611:	48 89 44 24 08       	mov    %rax,0x8(%rsp)
  401616:	48 89 45 00          	mov    %rax,0x0(%rbp)
  40161a:	48 89 df             	mov    %rbx,%rdi
  40161d:	e8 8e f9 ff ff       	callq  400fb0 <malloc@plt>
  401622:	48 89 04 24          	mov    %rax,(%rsp)
  401626:	48 89 45 10          	mov    %rax,0x10(%rbp)
  40162a:	48 89 df             	mov    %rbx,%rdi
  40162d:	e8 7e f9 ff ff       	callq  400fb0 <malloc@plt>
  401632:	49 89 c4             	mov    %rax,%r12
  401635:	48 89 45 08          	mov    %rax,0x8(%rbp)
  401639:	48 89 df             	mov    %rbx,%rdi
  40163c:	e8 6f f9 ff ff       	callq  400fb0 <malloc@plt>
  401641:	49 89 c5             	mov    %rax,%r13
  401644:	48 89 45 18          	mov    %rax,0x18(%rbp)
  401648:	48 89 df             	mov    %rbx,%rdi
  40164b:	e8 60 f9 ff ff       	callq  400fb0 <malloc@plt>
  401650:	48 89 45 20          	mov    %rax,0x20(%rbp)
  401654:	48 85 ed             	test   %rbp,%rbp
  401657:	0f 84 19 0d 00 00    	je     402376 <main+0x1046>
  40165d:	48 83 7c 24 08 00    	cmpq   $0x0,0x8(%rsp)
  401663:	0f 84 14 0d 00 00    	je     40237d <main+0x104d>
  401669:	48 83 3c 24 00       	cmpq   $0x0,(%rsp)
  40166e:	0f 84 10 0d 00 00    	je     402384 <main+0x1054>
  401674:	4d 85 e4             	test   %r12,%r12
  401677:	0f 84 0e 0d 00 00    	je     40238b <main+0x105b>
  40167d:	4d 85 ed             	test   %r13,%r13
  401680:	0f 84 0c 0d 00 00    	je     402392 <main+0x1062>
  401686:	48 85 c0             	test   %rax,%rax
  401689:	0f 84 0a 0d 00 00    	je     402399 <main+0x1069>
  40168f:	48 83 c5 50          	add    $0x50,%rbp
  401693:	48 89 ef             	mov    %rbp,%rdi
  401696:	31 f6                	xor    %esi,%esi
  401698:	e8 b3 f9 ff ff       	callq  401050 <pthread_mutex_init@plt>
  40169d:	85 c0                	test   %eax,%eax
  40169f:	0f 85 08 0d 00 00    	jne    4023ad <main+0x107d>
  4016a5:	48 8b 3d 2c 7b 20 00 	mov    0x207b2c(%rip),%rdi        # 6091d8 <Global>
  4016ac:	48 83 c7 78          	add    $0x78,%rdi
  4016b0:	31 f6                	xor    %esi,%esi
  4016b2:	e8 d9 f8 ff ff       	callq  400f90 <pthread_cond_init@plt>
  4016b7:	85 c0                	test   %eax,%eax
  4016b9:	0f 85 02 0d 00 00    	jne    4023c1 <main+0x1091>
  4016bf:	48 8b 05 12 7b 20 00 	mov    0x207b12(%rip),%rax        # 6091d8 <Global>
  4016c6:	48 c7 80 b0 00 00 00 	movq   $0x0,0xb0(%rax)
  4016cd:	00 00 00 00 
  4016d1:	48 c7 80 a8 00 00 00 	movq   $0x0,0xa8(%rax)
  4016d8:	00 00 00 00 
  4016dc:	48 8d b8 b8 00 00 00 	lea    0xb8(%rax),%rdi
  4016e3:	31 f6                	xor    %esi,%esi
  4016e5:	e8 66 f9 ff ff       	callq  401050 <pthread_mutex_init@plt>
  4016ea:	48 8b 05 e7 7a 20 00 	mov    0x207ae7(%rip),%rax        # 6091d8 <Global>
  4016f1:	48 c7 40 48 00 00 00 	movq   $0x0,0x48(%rax)
  4016f8:	00 
  4016f9:	48 8b 1d e0 7c 20 00 	mov    0x207ce0(%rip),%rbx        # 6093e0 <rhs>
  401700:	bf 01 00 00 00       	mov    $0x1,%edi
  401705:	e8 c6 f8 ff ff       	callq  400fd0 <srand48@plt>
  40170a:	4c 8b 25 1f 7a 20 00 	mov    0x207a1f(%rip),%r12        # 609130 <n>
  401711:	4d 85 e4             	test   %r12,%r12
  401714:	0f 8e 63 02 00 00    	jle    40197d <main+0x64d>
  40171a:	45 31 ed             	xor    %r13d,%r13d
  40171d:	eb 0e                	jmp    40172d <main+0x3fd>
  40171f:	90                   	nop
  401720:	49 83 c5 01          	add    $0x1,%r13
  401724:	4d 39 e5             	cmp    %r12,%r13
  401727:	0f 8d a5 00 00 00    	jge    4017d2 <main+0x4a2>
  40172d:	64 49 8b 0e          	mov    %fs:(%r14),%rcx
  401731:	64 49 8b 37          	mov    %fs:(%r15),%rsi
  401735:	0f 31                	rdtsc  
  401737:	48 c1 e2 20          	shl    $0x20,%rdx
  40173b:	48 09 c2             	or     %rax,%rdx
  40173e:	48 29 ca             	sub    %rcx,%rdx
  401741:	48 39 f2             	cmp    %rsi,%rdx
  401744:	72 07                	jb     40174d <main+0x41d>
  401746:	31 c0                	xor    %eax,%eax
  401748:	e8 e3 59 00 00       	callq  407130 <concord_rdtsc_func>
  40174d:	4d 85 e4             	test   %r12,%r12
  401750:	7e ce                	jle    401720 <main+0x3f0>
  401752:	31 ed                	xor    %ebp,%ebp
  401754:	eb 18                	jmp    40176e <main+0x43e>
  401756:	66 2e 0f 1f 84 00 00 	nopw   %cs:0x0(%rax,%rax,1)
  40175d:	00 00 00 
  401760:	f2 0f 11 0c c8       	movsd  %xmm1,(%rax,%rcx,8)
  401765:	48 83 c5 01          	add    $0x1,%rbp
  401769:	4c 39 e5             	cmp    %r12,%rbp
  40176c:	7d b2                	jge    401720 <main+0x3f0>
  40176e:	64 49 8b 0e          	mov    %fs:(%r14),%rcx
  401772:	64 49 8b 37          	mov    %fs:(%r15),%rsi
  401776:	0f 31                	rdtsc  
  401778:	48 c1 e2 20          	shl    $0x20,%rdx
  40177c:	48 09 c2             	or     %rax,%rdx
  40177f:	48 29 ca             	sub    %rcx,%rdx
  401782:	48 39 f2             	cmp    %rsi,%rdx
  401785:	72 07                	jb     40178e <main+0x45e>
  401787:	31 c0                	xor    %eax,%eax
  401789:	e8 a2 59 00 00       	callq  407130 <concord_rdtsc_func>
  40178e:	e8 2d f8 ff ff       	callq  400fc0 <lrand48@plt>
  401793:	0f 57 c0             	xorps  %xmm0,%xmm0
  401796:	f2 48 0f 2a c0       	cvtsi2sd %rax,%xmm0
  40179b:	f2 0f 5e 05 c5 5c 00 	divsd  0x5cc5(%rip),%xmm0        # 407468 <_IO_stdin_used+0x8>
  4017a2:	00 
  4017a3:	48 8b 05 3e 7c 20 00 	mov    0x207c3e(%rip),%rax        # 6093e8 <a>
  4017aa:	4c 8b 25 7f 79 20 00 	mov    0x20797f(%rip),%r12        # 609130 <n>
  4017b1:	4c 89 e9             	mov    %r13,%rcx
  4017b4:	49 0f af cc          	imul   %r12,%rcx
  4017b8:	48 01 e9             	add    %rbp,%rcx
  4017bb:	66 0f 28 c8          	movapd %xmm0,%xmm1
  4017bf:	f2 0f 59 0d a9 5c 00 	mulsd  0x5ca9(%rip),%xmm1        # 407470 <_IO_stdin_used+0x10>
  4017c6:	00 
  4017c7:	49 39 ed             	cmp    %rbp,%r13
  4017ca:	74 94                	je     401760 <main+0x430>
  4017cc:	66 0f 28 c8          	movapd %xmm0,%xmm1
  4017d0:	eb 8e                	jmp    401760 <main+0x430>
  4017d2:	4d 85 e4             	test   %r12,%r12
  4017d5:	0f 8e a2 01 00 00    	jle    40197d <main+0x64d>
  4017db:	4a 8d 14 e5 00 00 00 	lea    0x0(,%r12,8),%rdx
  4017e2:	00 
  4017e3:	48 89 df             	mov    %rbx,%rdi
  4017e6:	31 f6                	xor    %esi,%esi
  4017e8:	e8 53 f7 ff ff       	callq  400f40 <memset@plt>
  4017ed:	48 8b 2d f4 7b 20 00 	mov    0x207bf4(%rip),%rbp        # 6093e8 <a>
  4017f4:	45 89 e5             	mov    %r12d,%r13d
  4017f7:	41 83 e5 01          	and    $0x1,%r13d
  4017fb:	49 83 fc 01          	cmp    $0x1,%r12
  4017ff:	75 50                	jne    401851 <main+0x521>
  401801:	48 83 c5 08          	add    $0x8,%rbp
  401805:	eb 0d                	jmp    401814 <main+0x4e4>
  401807:	66 0f 1f 84 00 00 00 	nopw   0x0(%rax,%rax,1)
  40180e:	00 00 
  401810:	48 83 c5 10          	add    $0x10,%rbp
  401814:	64 49 8b 0e          	mov    %fs:(%r14),%rcx
  401818:	64 49 8b 37          	mov    %fs:(%r15),%rsi
  40181c:	0f 31                	rdtsc  
  40181e:	48 c1 e2 20          	shl    $0x20,%rdx
  401822:	48 09 c2             	or     %rax,%rdx
  401825:	48 29 ca             	sub    %rcx,%rdx
  401828:	48 39 f2             	cmp    %rsi,%rdx
  40182b:	72 07                	jb     401834 <main+0x504>
  40182d:	31 c0                	xor    %eax,%eax
  40182f:	e8 fc 58 00 00       	callq  407130 <concord_rdtsc_func>
  401834:	4d 85 ed             	test   %r13,%r13
  401837:	74 d7                	je     401810 <main+0x4e0>
  401839:	f2 0f 10 45 f8       	movsd  -0x8(%rbp),%xmm0
  40183e:	f2 0f 58 03          	addsd  (%rbx),%xmm0
  401842:	f2 0f 11 03          	movsd  %xmm0,(%rbx)
  401846:	f2 0f 58 45 00       	addsd  0x0(%rbp),%xmm0
  40184b:	f2 0f 11 03          	movsd  %xmm0,(%rbx)
  40184f:	eb bf                	jmp    401810 <main+0x4e0>
  401851:	4d 89 e0             	mov    %r12,%r8
  401854:	49 c1 e0 04          	shl    $0x4,%r8
  401858:	4c 89 e7             	mov    %r12,%rdi
  40185b:	4c 29 ef             	sub    %r13,%rdi
  40185e:	4a 8d 34 e5 00 00 00 	lea    0x0(,%r12,8),%rsi
  401865:	00 
  401866:	48 01 ee             	add    %rbp,%rsi
  401869:	45 31 d2             	xor    %r10d,%r10d
  40186c:	4c 89 44 24 10       	mov    %r8,0x10(%rsp)
  401871:	48 89 7c 24 18       	mov    %rdi,0x18(%rsp)
  401876:	eb 1b                	jmp    401893 <main+0x563>
  401878:	0f 1f 84 00 00 00 00 	nopl   0x0(%rax,%rax,1)
  40187f:	00 
  401880:	49 83 c2 02          	add    $0x2,%r10
  401884:	4c 01 c5             	add    %r8,%rbp
  401887:	4c 01 c6             	add    %r8,%rsi
  40188a:	4d 39 e2             	cmp    %r12,%r10
  40188d:	0f 84 ea 00 00 00    	je     40197d <main+0x64d>
  401893:	64 49 8b 0e          	mov    %fs:(%r14),%rcx
  401897:	64 4d 8b 0f          	mov    %fs:(%r15),%r9
  40189b:	0f 31                	rdtsc  
  40189d:	48 c1 e2 20          	shl    $0x20,%rdx
  4018a1:	48 09 c2             	or     %rax,%rdx
  4018a4:	48 29 ca             	sub    %rcx,%rdx
  4018a7:	4c 39 ca             	cmp    %r9,%rdx
  4018aa:	72 23                	jb     4018cf <main+0x59f>
  4018ac:	31 c0                	xor    %eax,%eax
  4018ae:	48 89 74 24 08       	mov    %rsi,0x8(%rsp)
  4018b3:	4c 89 14 24          	mov    %r10,(%rsp)
  4018b7:	e8 74 58 00 00       	callq  407130 <concord_rdtsc_func>
  4018bc:	4c 8b 14 24          	mov    (%rsp),%r10
  4018c0:	48 8b 74 24 08       	mov    0x8(%rsp),%rsi
  4018c5:	48 8b 7c 24 18       	mov    0x18(%rsp),%rdi
  4018ca:	4c 8b 44 24 10       	mov    0x10(%rsp),%r8
  4018cf:	31 c9                	xor    %ecx,%ecx
  4018d1:	66 2e 0f 1f 84 00 00 	nopw   %cs:0x0(%rax,%rax,1)
  4018d8:	00 00 00 
  4018db:	0f 1f 44 00 00       	nopl   0x0(%rax,%rax,1)
  4018e0:	48 89 c8             	mov    %rcx,%rax
  4018e3:	f2 0f 10 44 cd 00    	movsd  0x0(%rbp,%rcx,8),%xmm0
  4018e9:	f2 0f 58 04 cb       	addsd  (%rbx,%rcx,8),%xmm0
  4018ee:	f2 0f 11 04 cb       	movsd  %xmm0,(%rbx,%rcx,8)
  4018f3:	f2 0f 10 44 cd 08    	movsd  0x8(%rbp,%rcx,8),%xmm0
  4018f9:	f2 0f 58 44 cb 08    	addsd  0x8(%rbx,%rcx,8),%xmm0
  4018ff:	f2 0f 11 44 cb 08    	movsd  %xmm0,0x8(%rbx,%rcx,8)
  401905:	48 83 c1 02          	add    $0x2,%rcx
  401909:	48 39 cf             	cmp    %rcx,%rdi
  40190c:	75 d2                	jne    4018e0 <main+0x5b0>
  40190e:	4d 85 ed             	test   %r13,%r13
  401911:	74 12                	je     401925 <main+0x5f5>
  401913:	f2 0f 10 44 c5 10    	movsd  0x10(%rbp,%rax,8),%xmm0
  401919:	f2 0f 58 44 c3 10    	addsd  0x10(%rbx,%rax,8),%xmm0
  40191f:	f2 0f 11 44 c3 10    	movsd  %xmm0,0x10(%rbx,%rax,8)
  401925:	31 c9                	xor    %ecx,%ecx
  401927:	66 0f 1f 84 00 00 00 	nopw   0x0(%rax,%rax,1)
  40192e:	00 00 
  401930:	48 89 c8             	mov    %rcx,%rax
  401933:	f2 0f 10 04 ce       	movsd  (%rsi,%rcx,8),%xmm0
  401938:	f2 0f 58 04 cb       	addsd  (%rbx,%rcx,8),%xmm0
  40193d:	f2 0f 11 04 cb       	movsd  %xmm0,(%rbx,%rcx,8)
  401942:	f2 0f 10 44 ce 08    	movsd  0x8(%rsi,%rcx,8),%xmm0
  401948:	f2 0f 58 44 cb 08    	addsd  0x8(%rbx,%rcx,8),%xmm0
  40194e:	f2 0f 11 44 cb 08    	movsd  %xmm0,0x8(%rbx,%rcx,8)
  401954:	48 83 c1 02          	add    $0x2,%rcx
  401958:	48 39 cf             	cmp    %rcx,%rdi
  40195b:	75 d3                	jne    401930 <main+0x600>
  40195d:	4d 85 ed             	test   %r13,%r13
  401960:	0f 84 1a ff ff ff    	je     401880 <main+0x550>
  401966:	f2 0f 10 44 c6 10    	movsd  0x10(%rsi,%rax,8),%xmm0
  40196c:	f2 0f 58 44 c3 10    	addsd  0x10(%rbx,%rax,8),%xmm0
  401972:	f2 0f 11 44 c3 10    	movsd  %xmm0,0x10(%rbx,%rax,8)
  401978:	e9 03 ff ff ff       	jmpq   401880 <main+0x550>
  40197d:	48 83 3d 13 78 20 00 	cmpq   $0x0,0x207813(%rip)        # 609198 <doprint>
  401984:	00 
  401985:	0f 84 c6 00 00 00    	je     401a51 <main+0x721>
  40198b:	bf a6 79 40 00       	mov    $0x4079a6,%edi
  401990:	e8 1b f5 ff ff       	callq  400eb0 <puts@plt>
  401995:	48 8b 2d 94 77 20 00 	mov    0x207794(%rip),%rbp        # 609130 <n>
  40199c:	48 85 ed             	test   %rbp,%rbp
  40199f:	0f 8e ac 00 00 00    	jle    401a51 <main+0x721>
  4019a5:	45 31 e4             	xor    %r12d,%r12d
  4019a8:	eb 24                	jmp    4019ce <main+0x69e>
  4019aa:	66 0f 1f 44 00 00    	nopw   0x0(%rax,%rax,1)
  4019b0:	bf 0a 00 00 00       	mov    $0xa,%edi
  4019b5:	e8 b6 f4 ff ff       	callq  400e70 <putchar@plt>
  4019ba:	49 83 c4 01          	add    $0x1,%r12
  4019be:	48 8b 2d 6b 77 20 00 	mov    0x20776b(%rip),%rbp        # 609130 <n>
  4019c5:	49 39 ec             	cmp    %rbp,%r12
  4019c8:	0f 8d 83 00 00 00    	jge    401a51 <main+0x721>
  4019ce:	64 49 8b 0e          	mov    %fs:(%r14),%rcx
  4019d2:	64 49 8b 37          	mov    %fs:(%r15),%rsi
  4019d6:	0f 31                	rdtsc  
  4019d8:	48 c1 e2 20          	shl    $0x20,%rdx
  4019dc:	48 09 c2             	or     %rax,%rdx
  4019df:	48 29 ca             	sub    %rcx,%rdx
  4019e2:	48 39 f2             	cmp    %rsi,%rdx
  4019e5:	72 07                	jb     4019ee <main+0x6be>
  4019e7:	31 c0                	xor    %eax,%eax
  4019e9:	e8 42 57 00 00       	callq  407130 <concord_rdtsc_func>
  4019ee:	48 85 ed             	test   %rbp,%rbp
  4019f1:	7e bd                	jle    4019b0 <main+0x680>
  4019f3:	31 db                	xor    %ebx,%ebx
  4019f5:	eb 38                	jmp    401a2f <main+0x6ff>
  4019f7:	66 0f 1f 84 00 00 00 	nopw   0x0(%rax,%rax,1)
  4019fe:	00 00 
  401a00:	48 8b 05 e1 79 20 00 	mov    0x2079e1(%rip),%rax        # 6093e8 <a>
  401a07:	48 0f af eb          	imul   %rbx,%rbp
  401a0b:	4c 01 e5             	add    %r12,%rbp
  401a0e:	f2 0f 10 04 e8       	movsd  (%rax,%rbp,8),%xmm0
  401a13:	bf c3 79 40 00       	mov    $0x4079c3,%edi
  401a18:	b0 01                	mov    $0x1,%al
  401a1a:	e8 f1 f4 ff ff       	callq  400f10 <printf@plt>
  401a1f:	48 83 c3 01          	add    $0x1,%rbx
  401a23:	48 8b 2d 06 77 20 00 	mov    0x207706(%rip),%rbp        # 609130 <n>
  401a2a:	48 39 eb             	cmp    %rbp,%rbx
  401a2d:	7d 81                	jge    4019b0 <main+0x680>
  401a2f:	64 49 8b 0e          	mov    %fs:(%r14),%rcx
  401a33:	64 49 8b 37          	mov    %fs:(%r15),%rsi
  401a37:	0f 31                	rdtsc  
  401a39:	48 c1 e2 20          	shl    $0x20,%rdx
  401a3d:	48 09 c2             	or     %rax,%rdx
  401a40:	48 29 ca             	sub    %rcx,%rdx
  401a43:	48 39 f2             	cmp    %rsi,%rdx
  401a46:	72 b8                	jb     401a00 <main+0x6d0>
  401a48:	31 c0                	xor    %eax,%eax
  401a4a:	e8 e1 56 00 00       	callq  407130 <concord_rdtsc_func>
  401a4f:	eb af                	jmp    401a00 <main+0x6d0>
  401a51:	48 83 3d df 76 20 00 	cmpq   $0x2,0x2076df(%rip)        # 609138 <P>
  401a58:	02 
  401a59:	7c 66                	jl     401ac1 <main+0x791>
  401a5b:	bb e0 91 60 00       	mov    $0x6091e0,%ebx
  401a60:	31 ed                	xor    %ebp,%ebp
  401a62:	66 2e 0f 1f 84 00 00 	nopw   %cs:0x0(%rax,%rax,1)
  401a69:	00 00 00 
  401a6c:	0f 1f 40 00          	nopl   0x0(%rax)
  401a70:	48 83 c5 01          	add    $0x1,%rbp
  401a74:	64 49 8b 0e          	mov    %fs:(%r14),%rcx
  401a78:	64 49 8b 37          	mov    %fs:(%r15),%rsi
  401a7c:	0f 31                	rdtsc  
  401a7e:	48 c1 e2 20          	shl    $0x20,%rdx
  401a82:	48 09 c2             	or     %rax,%rdx
  401a85:	48 29 ca             	sub    %rcx,%rdx
  401a88:	48 39 f2             	cmp    %rsi,%rdx
  401a8b:	72 07                	jb     401a94 <main+0x764>
  401a8d:	31 c0                	xor    %eax,%eax
  401a8f:	e8 9c 56 00 00       	callq  407130 <concord_rdtsc_func>
  401a94:	89 e9                	mov    %ebp,%ecx
  401a96:	ba 10 24 40 00       	mov    $0x402410,%edx
  401a9b:	48 89 df             	mov    %rbx,%rdi
  401a9e:	31 f6                	xor    %esi,%esi
  401aa0:	e8 db f3 ff ff       	callq  400e80 <pthread_create@plt>
  401aa5:	85 c0                	test   %eax,%eax
  401aa7:	0f 85 a7 08 00 00    	jne    402354 <main+0x1024>
  401aad:	48 8b 05 84 76 20 00 	mov    0x207684(%rip),%rax        # 609138 <P>
  401ab4:	48 83 c0 ff          	add    $0xffffffffffffffff,%rax
  401ab8:	48 83 c3 08          	add    $0x8,%rbx
  401abc:	48 39 c5             	cmp    %rax,%rbp
  401abf:	7c af                	jl     401a70 <main+0x740>
  401ac1:	e8 9a f6 ff ff       	callq  401160 <init_stats>
  401ac6:	bf b8 00 00 00       	mov    $0xb8,%edi
  401acb:	48 03 3d 06 77 20 00 	add    0x207706(%rip),%rdi        # 6091d8 <Global>
  401ad2:	e8 89 f5 ff ff       	callq  401060 <pthread_mutex_lock@plt>
  401ad7:	48 8b 3d fa 76 20 00 	mov    0x2076fa(%rip),%rdi        # 6091d8 <Global>
  401ade:	48 8b 5f 48          	mov    0x48(%rdi),%rbx
  401ae2:	48 8d 43 01          	lea    0x1(%rbx),%rax
  401ae6:	48 89 47 48          	mov    %rax,0x48(%rdi)
  401aea:	48 81 c7 b8 00 00 00 	add    $0xb8,%rdi
  401af1:	e8 aa f4 ff ff       	callq  400fa0 <pthread_mutex_unlock@plt>
  401af6:	48 8b 3d 33 76 20 00 	mov    0x207633(%rip),%rdi        # 609130 <n>
  401afd:	48 8b 35 3c 76 20 00 	mov    0x20763c(%rip),%rsi        # 609140 <block_size>
  401b04:	48 8b 0d 95 76 20 00 	mov    0x207695(%rip),%rcx        # 6091a0 <dostats>
  401b0b:	48 89 da             	mov    %rbx,%rdx
  401b0e:	e8 7d 09 00 00       	callq  402490 <OneSolve>
  401b13:	bf ba 00 00 00       	mov    $0xba,%edi
  401b18:	31 c0                	xor    %eax,%eax
  401b1a:	e8 41 f4 ff ff       	callq  400f60 <syscall@plt>
  401b1f:	64 f2 0f 10 04 25 c8 	movsd  %fs:0xffffffffffffffc8,%xmm0
  401b26:	ff ff ff 
  401b29:	bf bd 75 40 00       	mov    $0x4075bd,%edi
  401b2e:	48 89 c6             	mov    %rax,%rsi
  401b31:	b0 01                	mov    $0x1,%al
  401b33:	e8 d8 f3 ff ff       	callq  400f10 <printf@plt>
  401b38:	48 83 3d f8 75 20 00 	cmpq   $0x1,0x2075f8(%rip)        # 609138 <P>
  401b3f:	01 
  401b40:	74 59                	je     401b9b <main+0x86b>
  401b42:	31 db                	xor    %ebx,%ebx
  401b44:	66 2e 0f 1f 84 00 00 	nopw   %cs:0x0(%rax,%rax,1)
  401b4b:	00 00 00 
  401b4e:	66 90                	xchg   %ax,%ax
  401b50:	64 49 8b 0e          	mov    %fs:(%r14),%rcx
  401b54:	64 49 8b 37          	mov    %fs:(%r15),%rsi
  401b58:	0f 31                	rdtsc  
  401b5a:	48 c1 e2 20          	shl    $0x20,%rdx
  401b5e:	48 09 c2             	or     %rax,%rdx
  401b61:	48 29 ca             	sub    %rcx,%rdx
  401b64:	48 39 f2             	cmp    %rsi,%rdx
  401b67:	72 07                	jb     401b70 <main+0x840>
  401b69:	31 c0                	xor    %eax,%eax
  401b6b:	e8 c0 55 00 00       	callq  407130 <concord_rdtsc_func>
  401b70:	48 8b 3c dd e0 91 60 	mov    0x6091e0(,%rbx,8),%rdi
  401b77:	00 
  401b78:	31 f6                	xor    %esi,%esi
  401b7a:	e8 81 f4 ff ff       	callq  401000 <pthread_join@plt>
  401b7f:	85 c0                	test   %eax,%eax
  401b81:	0f 85 21 01 00 00    	jne    401ca8 <main+0x978>
  401b87:	48 83 c3 01          	add    $0x1,%rbx
  401b8b:	48 8b 05 a6 75 20 00 	mov    0x2075a6(%rip),%rax        # 609138 <P>
  401b92:	48 83 c0 ff          	add    $0xffffffffffffffff,%rax
  401b96:	48 39 c3             	cmp    %rax,%rbx
  401b99:	72 b5                	jb     401b50 <main+0x820>
  401b9b:	48 83 3d f5 75 20 00 	cmpq   $0x0,0x2075f5(%rip)        # 609198 <doprint>
  401ba2:	00 
  401ba3:	0f 84 b1 00 00 00    	je     401c5a <main+0x92a>
  401ba9:	bf fe 79 40 00       	mov    $0x4079fe,%edi
  401bae:	e8 fd f2 ff ff       	callq  400eb0 <puts@plt>
  401bb3:	48 8b 2d 76 75 20 00 	mov    0x207576(%rip),%rbp        # 609130 <n>
  401bba:	48 85 ed             	test   %rbp,%rbp
  401bbd:	0f 8e 97 00 00 00    	jle    401c5a <main+0x92a>
  401bc3:	45 31 e4             	xor    %r12d,%r12d
  401bc6:	64 49 8b 0e          	mov    %fs:(%r14),%rcx
  401bca:	64 49 8b 37          	mov    %fs:(%r15),%rsi
  401bce:	0f 31                	rdtsc  
  401bd0:	48 c1 e2 20          	shl    $0x20,%rdx
  401bd4:	48 09 c2             	or     %rax,%rdx
  401bd7:	48 29 ca             	sub    %rcx,%rdx
  401bda:	48 39 f2             	cmp    %rsi,%rdx
  401bdd:	72 07                	jb     401be6 <main+0x8b6>
  401bdf:	31 c0                	xor    %eax,%eax
  401be1:	e8 4a 55 00 00       	callq  407130 <concord_rdtsc_func>
  401be6:	48 85 ed             	test   %rbp,%rbp
  401be9:	7e 51                	jle    401c3c <main+0x90c>
  401beb:	31 db                	xor    %ebx,%ebx
  401bed:	64 49 8b 0e          	mov    %fs:(%r14),%rcx
  401bf1:	64 49 8b 37          	mov    %fs:(%r15),%rsi
  401bf5:	0f 31                	rdtsc  
  401bf7:	48 c1 e2 20          	shl    $0x20,%rdx
  401bfb:	48 09 c2             	or     %rax,%rdx
  401bfe:	48 29 ca             	sub    %rcx,%rdx
  401c01:	48 39 f2             	cmp    %rsi,%rdx
  401c04:	72 07                	jb     401c0d <main+0x8dd>
  401c06:	31 c0                	xor    %eax,%eax
  401c08:	e8 23 55 00 00       	callq  407130 <concord_rdtsc_func>
  401c0d:	48 8b 05 d4 77 20 00 	mov    0x2077d4(%rip),%rax        # 6093e8 <a>
  401c14:	48 0f af eb          	imul   %rbx,%rbp
  401c18:	4c 01 e5             	add    %r12,%rbp
  401c1b:	f2 0f 10 04 e8       	movsd  (%rax,%rbp,8),%xmm0
  401c20:	bf c3 79 40 00       	mov    $0x4079c3,%edi
  401c25:	b0 01                	mov    $0x1,%al
  401c27:	e8 e4 f2 ff ff       	callq  400f10 <printf@plt>
  401c2c:	48 83 c3 01          	add    $0x1,%rbx
  401c30:	48 8b 2d f9 74 20 00 	mov    0x2074f9(%rip),%rbp        # 609130 <n>
  401c37:	48 39 eb             	cmp    %rbp,%rbx
  401c3a:	7c b1                	jl     401bed <main+0x8bd>
  401c3c:	bf 0a 00 00 00       	mov    $0xa,%edi
  401c41:	e8 2a f2 ff ff       	callq  400e70 <putchar@plt>
  401c46:	49 83 c4 01          	add    $0x1,%r12
  401c4a:	48 8b 2d df 74 20 00 	mov    0x2074df(%rip),%rbp        # 609130 <n>
  401c51:	49 39 ec             	cmp    %rbp,%r12
  401c54:	0f 8c 6c ff ff ff    	jl     401bc6 <main+0x896>
  401c5a:	48 83 3d 3e 75 20 00 	cmpq   $0x0,0x20753e(%rip)        # 6091a0 <dostats>
  401c61:	00 
  401c62:	0f 84 d3 03 00 00    	je     40203b <main+0xd0b>
  401c68:	48 8b 2d 69 75 20 00 	mov    0x207569(%rip),%rbp        # 6091d8 <Global>
  401c6f:	48 8b 5d 20          	mov    0x20(%rbp),%rbx
  401c73:	f2 44 0f 10 0b       	movsd  (%rbx),%xmm9
  401c78:	4c 8b 25 b9 74 20 00 	mov    0x2074b9(%rip),%r12        # 609138 <P>
  401c7f:	49 83 fc 02          	cmp    $0x2,%r12
  401c83:	7c 37                	jl     401cbc <main+0x98c>
  401c85:	41 8d 7c 24 ff       	lea    -0x1(%r12),%edi
  401c8a:	83 e7 01             	and    $0x1,%edi
  401c8d:	49 83 fc 02          	cmp    $0x2,%r12
  401c91:	75 38                	jne    401ccb <main+0x99b>
  401c93:	41 bd 01 00 00 00    	mov    $0x1,%r13d
  401c99:	66 45 0f 28 c1       	movapd %xmm9,%xmm8
  401c9e:	66 45 0f 28 d1       	movapd %xmm9,%xmm10
  401ca3:	e9 06 01 00 00       	jmpq   401dae <main+0xa7e>
  401ca8:	bf e5 79 40 00       	mov    $0x4079e5,%edi
  401cad:	e8 fe f1 ff ff       	callq  400eb0 <puts@plt>
  401cb2:	bf ff ff ff ff       	mov    $0xffffffff,%edi
  401cb7:	e8 64 f3 ff ff       	callq  401020 <exit@plt>
  401cbc:	66 45 0f 28 d1       	movapd %xmm9,%xmm10
  401cc1:	66 45 0f 28 c1       	movapd %xmm9,%xmm8
  401cc6:	e9 0b 01 00 00       	jmpq   401dd6 <main+0xaa6>
  401ccb:	4d 89 e0             	mov    %r12,%r8
  401cce:	49 29 f8             	sub    %rdi,%r8
  401cd1:	41 bd 01 00 00 00    	mov    $0x1,%r13d
  401cd7:	66 45 0f 28 c1       	movapd %xmm9,%xmm8
  401cdc:	66 45 0f 28 d1       	movapd %xmm9,%xmm10
  401ce1:	64 49 8b 0e          	mov    %fs:(%r14),%rcx
  401ce5:	64 49 8b 37          	mov    %fs:(%r15),%rsi
  401ce9:	0f 31                	rdtsc  
  401ceb:	48 c1 e2 20          	shl    $0x20,%rdx
  401cef:	48 09 c2             	or     %rax,%rdx
  401cf2:	48 29 ca             	sub    %rcx,%rdx
  401cf5:	48 39 f2             	cmp    %rsi,%rdx
  401cf8:	72 43                	jb     401d3d <main+0xa0d>
  401cfa:	31 c0                	xor    %eax,%eax
  401cfc:	f2 44 0f 11 4c 24 68 	movsd  %xmm9,0x68(%rsp)
  401d03:	f2 44 0f 11 44 24 60 	movsd  %xmm8,0x60(%rsp)
  401d0a:	f2 44 0f 11 54 24 08 	movsd  %xmm10,0x8(%rsp)
  401d11:	48 89 3c 24          	mov    %rdi,(%rsp)
  401d15:	4c 89 44 24 10       	mov    %r8,0x10(%rsp)
  401d1a:	e8 11 54 00 00       	callq  407130 <concord_rdtsc_func>
  401d1f:	4c 8b 44 24 10       	mov    0x10(%rsp),%r8
  401d24:	48 8b 3c 24          	mov    (%rsp),%rdi
  401d28:	f2 44 0f 10 54 24 08 	movsd  0x8(%rsp),%xmm10
  401d2f:	f2 44 0f 10 44 24 60 	movsd  0x60(%rsp),%xmm8
  401d36:	f2 44 0f 10 4c 24 68 	movsd  0x68(%rsp),%xmm9
  401d3d:	f2 42 0f 10 04 eb    	movsd  (%rbx,%r13,8),%xmm0
  401d43:	f2 42 0f 10 4c eb 08 	movsd  0x8(%rbx,%r13,8),%xmm1
  401d4a:	66 0f 28 d0          	movapd %xmm0,%xmm2
  401d4e:	f2 41 0f 5f d0       	maxsd  %xmm8,%xmm2
  401d53:	f2 44 0f 58 d0       	addsd  %xmm0,%xmm10
  401d58:	f2 41 0f 5d c1       	minsd  %xmm9,%xmm0
  401d5d:	66 0f 28 d9          	movapd %xmm1,%xmm3
  401d61:	f2 0f 5f da          	maxsd  %xmm2,%xmm3
  401d65:	f2 44 0f 58 d1       	addsd  %xmm1,%xmm10
  401d6a:	f2 0f 5d c8          	minsd  %xmm0,%xmm1
  401d6e:	f2 42 0f 10 44 eb 10 	movsd  0x10(%rbx,%r13,8),%xmm0
  401d75:	66 0f 28 d0          	movapd %xmm0,%xmm2
  401d79:	f2 0f 5f d3          	maxsd  %xmm3,%xmm2
  401d7d:	f2 44 0f 58 d0       	addsd  %xmm0,%xmm10
  401d82:	f2 0f 5d c1          	minsd  %xmm1,%xmm0
  401d86:	f2 46 0f 10 4c eb 18 	movsd  0x18(%rbx,%r13,8),%xmm9
  401d8d:	66 45 0f 28 c1       	movapd %xmm9,%xmm8
  401d92:	f2 44 0f 5f c2       	maxsd  %xmm2,%xmm8
  401d97:	f2 45 0f 58 d1       	addsd  %xmm9,%xmm10
  401d9c:	f2 44 0f 5d c8       	minsd  %xmm0,%xmm9
  401da1:	49 83 c5 04          	add    $0x4,%r13
  401da5:	4d 39 e8             	cmp    %r13,%r8
  401da8:	0f 85 33 ff ff ff    	jne    401ce1 <main+0x9b1>
  401dae:	48 85 ff             	test   %rdi,%rdi
  401db1:	74 23                	je     401dd6 <main+0xaa6>
  401db3:	f2 42 0f 10 04 eb    	movsd  (%rbx,%r13,8),%xmm0
  401db9:	f2 44 0f 58 d0       	addsd  %xmm0,%xmm10
  401dbe:	66 0f 28 c8          	movapd %xmm0,%xmm1
  401dc2:	f2 41 0f 5d c9       	minsd  %xmm9,%xmm1
  401dc7:	f2 41 0f 5f c0       	maxsd  %xmm8,%xmm0
  401dcc:	66 44 0f 28 c0       	movapd %xmm0,%xmm8
  401dd1:	66 44 0f 28 c9       	movapd %xmm1,%xmm9
  401dd6:	f2 4d 0f 2a fc       	cvtsi2sd %r12,%xmm15
  401ddb:	4c 8b 6d 00          	mov    0x0(%rbp),%r13
  401ddf:	4c 8b 45 08          	mov    0x8(%rbp),%r8
  401de3:	f2 45 0f 10 75 00    	movsd  0x0(%r13),%xmm14
  401de9:	f2 45 0f 10 20       	movsd  (%r8),%xmm12
  401dee:	4c 8b 4d 10          	mov    0x10(%rbp),%r9
  401df2:	f2 45 0f 10 19       	movsd  (%r9),%xmm11
  401df7:	48 8b 7d 18          	mov    0x18(%rbp),%rdi
  401dfb:	f2 44 0f 10 2f       	movsd  (%rdi),%xmm13
  401e00:	49 83 fc 02          	cmp    $0x2,%r12
  401e04:	f2 44 0f 11 4c 24 68 	movsd  %xmm9,0x68(%rsp)
  401e0b:	f2 44 0f 11 44 24 60 	movsd  %xmm8,0x60(%rsp)
  401e12:	0f 8c 90 01 00 00    	jl     401fa8 <main+0xc78>
  401e18:	bb 01 00 00 00       	mov    $0x1,%ebx
  401e1d:	f2 44 0f 11 6c 24 48 	movsd  %xmm13,0x48(%rsp)
  401e24:	f2 44 0f 11 5c 24 38 	movsd  %xmm11,0x38(%rsp)
  401e2b:	f2 44 0f 11 64 24 30 	movsd  %xmm12,0x30(%rsp)
  401e32:	f2 44 0f 11 74 24 20 	movsd  %xmm14,0x20(%rsp)
  401e39:	f2 44 0f 11 6c 24 58 	movsd  %xmm13,0x58(%rsp)
  401e40:	f2 44 0f 11 5c 24 50 	movsd  %xmm11,0x50(%rsp)
  401e47:	f2 44 0f 11 64 24 40 	movsd  %xmm12,0x40(%rsp)
  401e4e:	f2 44 0f 11 74 24 28 	movsd  %xmm14,0x28(%rsp)
  401e55:	64 49 8b 0e          	mov    %fs:(%r14),%rcx
  401e59:	64 49 8b 37          	mov    %fs:(%r15),%rsi
  401e5d:	0f 31                	rdtsc  
  401e5f:	48 c1 e2 20          	shl    $0x20,%rdx
  401e63:	48 09 c2             	or     %rax,%rdx
  401e66:	48 29 ca             	sub    %rcx,%rdx
  401e69:	48 39 f2             	cmp    %rsi,%rdx
  401e6c:	0f 82 8b 00 00 00    	jb     401efd <main+0xbcd>
  401e72:	31 c0                	xor    %eax,%eax
  401e74:	f2 44 0f 11 54 24 08 	movsd  %xmm10,0x8(%rsp)
  401e7b:	f2 44 0f 11 34 24    	movsd  %xmm14,(%rsp)
  401e81:	f2 44 0f 11 64 24 10 	movsd  %xmm12,0x10(%rsp)
  401e88:	f2 44 0f 11 5c 24 18 	movsd  %xmm11,0x18(%rsp)
  401e8f:	f2 44 0f 11 6c 24 70 	movsd  %xmm13,0x70(%rsp)
  401e96:	f2 44 0f 11 bc 24 98 	movsd  %xmm15,0x98(%rsp)
  401e9d:	00 00 00 
  401ea0:	4c 89 c5             	mov    %r8,%rbp
  401ea3:	4c 89 a4 24 90 00 00 	mov    %r12,0x90(%rsp)
  401eaa:	00 
  401eab:	4c 89 8c 24 88 00 00 	mov    %r9,0x88(%rsp)
  401eb2:	00 
  401eb3:	49 89 fc             	mov    %rdi,%r12
  401eb6:	e8 75 52 00 00       	callq  407130 <concord_rdtsc_func>
  401ebb:	4c 89 e7             	mov    %r12,%rdi
  401ebe:	4c 8b 8c 24 88 00 00 	mov    0x88(%rsp),%r9
  401ec5:	00 
  401ec6:	4c 8b a4 24 90 00 00 	mov    0x90(%rsp),%r12
  401ecd:	00 
  401ece:	49 89 e8             	mov    %rbp,%r8
  401ed1:	f2 44 0f 10 bc 24 98 	movsd  0x98(%rsp),%xmm15
  401ed8:	00 00 00 
  401edb:	f2 44 0f 10 6c 24 70 	movsd  0x70(%rsp),%xmm13
  401ee2:	f2 44 0f 10 5c 24 18 	movsd  0x18(%rsp),%xmm11
  401ee9:	f2 44 0f 10 64 24 10 	movsd  0x10(%rsp),%xmm12
  401ef0:	f2 44 0f 10 34 24    	movsd  (%rsp),%xmm14
  401ef6:	f2 44 0f 10 54 24 08 	movsd  0x8(%rsp),%xmm10
  401efd:	f2 41 0f 10 7c dd 00 	movsd  0x0(%r13,%rbx,8),%xmm7
  401f04:	66 0f 28 c7          	movapd %xmm7,%xmm0
  401f08:	f2 0f 5f 44 24 20    	maxsd  0x20(%rsp),%xmm0
  401f0e:	f2 41 0f 10 0c d8    	movsd  (%r8,%rbx,8),%xmm1
  401f14:	66 0f 28 d9          	movapd %xmm1,%xmm3
  401f18:	f2 0f 5f 5c 24 30    	maxsd  0x30(%rsp),%xmm3
  401f1e:	f2 41 0f 10 14 d9    	movsd  (%r9,%rbx,8),%xmm2
  401f24:	66 0f 28 ea          	movapd %xmm2,%xmm5
  401f28:	f2 0f 5f 6c 24 38    	maxsd  0x38(%rsp),%xmm5
  401f2e:	f2 0f 10 34 df       	movsd  (%rdi,%rbx,8),%xmm6
  401f33:	66 0f 28 e6          	movapd %xmm6,%xmm4
  401f37:	f2 0f 5f 64 24 48    	maxsd  0x48(%rsp),%xmm4
  401f3d:	f2 44 0f 58 f7       	addsd  %xmm7,%xmm14
  401f42:	f2 0f 5d 7c 24 28    	minsd  0x28(%rsp),%xmm7
  401f48:	f2 44 0f 58 e1       	addsd  %xmm1,%xmm12
  401f4d:	f2 0f 5d 4c 24 40    	minsd  0x40(%rsp),%xmm1
  401f53:	f2 44 0f 58 da       	addsd  %xmm2,%xmm11
  401f58:	f2 0f 5d 54 24 50    	minsd  0x50(%rsp),%xmm2
  401f5e:	f2 44 0f 58 ee       	addsd  %xmm6,%xmm13
  401f63:	f2 0f 5d 74 24 58    	minsd  0x58(%rsp),%xmm6
  401f69:	48 83 c3 01          	add    $0x1,%rbx
  401f6d:	f2 0f 11 64 24 48    	movsd  %xmm4,0x48(%rsp)
  401f73:	f2 0f 11 6c 24 38    	movsd  %xmm5,0x38(%rsp)
  401f79:	f2 0f 11 5c 24 30    	movsd  %xmm3,0x30(%rsp)
  401f7f:	f2 0f 11 44 24 20    	movsd  %xmm0,0x20(%rsp)
  401f85:	f2 0f 11 74 24 58    	movsd  %xmm6,0x58(%rsp)
  401f8b:	f2 0f 11 54 24 50    	movsd  %xmm2,0x50(%rsp)
  401f91:	f2 0f 11 4c 24 40    	movsd  %xmm1,0x40(%rsp)
  401f97:	f2 0f 11 7c 24 28    	movsd  %xmm7,0x28(%rsp)
  401f9d:	49 39 dc             	cmp    %rbx,%r12
  401fa0:	0f 85 af fe ff ff    	jne    401e55 <main+0xb25>
  401fa6:	eb 28                	jmp    401fd0 <main+0xca0>
  401fa8:	66 41 0f 28 fe       	movapd %xmm14,%xmm7
  401fad:	66 41 0f 28 cc       	movapd %xmm12,%xmm1
  401fb2:	66 41 0f 28 d3       	movapd %xmm11,%xmm2
  401fb7:	66 41 0f 28 f5       	movapd %xmm13,%xmm6
  401fbc:	66 41 0f 28 c6       	movapd %xmm14,%xmm0
  401fc1:	66 41 0f 28 dc       	movapd %xmm12,%xmm3
  401fc6:	66 41 0f 28 eb       	movapd %xmm11,%xmm5
  401fcb:	66 41 0f 28 e5       	movapd %xmm13,%xmm4
  401fd0:	f2 0f 11 74 24 20    	movsd  %xmm6,0x20(%rsp)
  401fd6:	f2 0f 11 64 24 28    	movsd  %xmm4,0x28(%rsp)
  401fdc:	f2 0f 11 54 24 30    	movsd  %xmm2,0x30(%rsp)
  401fe2:	f2 0f 11 6c 24 38    	movsd  %xmm5,0x38(%rsp)
  401fe8:	f2 0f 11 4c 24 40    	movsd  %xmm1,0x40(%rsp)
  401fee:	f2 0f 11 5c 24 48    	movsd  %xmm3,0x48(%rsp)
  401ff4:	f2 0f 11 7c 24 50    	movsd  %xmm7,0x50(%rsp)
  401ffa:	f2 0f 11 44 24 58    	movsd  %xmm0,0x58(%rsp)
  402000:	f2 45 0f 5e d7       	divsd  %xmm15,%xmm10
  402005:	f2 44 0f 11 54 24 08 	movsd  %xmm10,0x8(%rsp)
  40200c:	f2 45 0f 5e f7       	divsd  %xmm15,%xmm14
  402011:	f2 44 0f 11 34 24    	movsd  %xmm14,(%rsp)
  402017:	f2 45 0f 5e e7       	divsd  %xmm15,%xmm12
  40201c:	f2 44 0f 11 64 24 10 	movsd  %xmm12,0x10(%rsp)
  402023:	f2 45 0f 5e df       	divsd  %xmm15,%xmm11
  402028:	f2 44 0f 11 5c 24 18 	movsd  %xmm11,0x18(%rsp)
  40202f:	f2 45 0f 5e ef       	divsd  %xmm15,%xmm13
  402034:	f2 44 0f 11 6c 24 70 	movsd  %xmm13,0x70(%rsp)
  40203b:	bf 1b 7a 40 00       	mov    $0x407a1b,%edi
  402040:	e8 6b ee ff ff       	callq  400eb0 <puts@plt>
  402045:	bf 4a 7a 40 00       	mov    $0x407a4a,%edi
  40204a:	e8 61 ee ff ff       	callq  400eb0 <puts@plt>
  40204f:	bf 96 7a 40 00       	mov    $0x407a96,%edi
  402054:	e8 57 ee ff ff       	callq  400eb0 <puts@plt>
  402059:	48 8b 05 78 71 20 00 	mov    0x207178(%rip),%rax        # 6091d8 <Global>
  402060:	48 8b 48 20          	mov    0x20(%rax),%rcx
  402064:	f2 0f 10 01          	movsd  (%rcx),%xmm0
  402068:	48 8b 08             	mov    (%rax),%rcx
  40206b:	48 8b 50 08          	mov    0x8(%rax),%rdx
  40206f:	f2 0f 10 09          	movsd  (%rcx),%xmm1
  402073:	f2 0f 10 12          	movsd  (%rdx),%xmm2
  402077:	48 8b 48 10          	mov    0x10(%rax),%rcx
  40207b:	f2 0f 10 19          	movsd  (%rcx),%xmm3
  40207f:	48 8b 40 18          	mov    0x18(%rax),%rax
  402083:	f2 0f 10 20          	movsd  (%rax),%xmm4
  402087:	bf e0 7a 40 00       	mov    $0x407ae0,%edi
  40208c:	b0 05                	mov    $0x5,%al
  40208e:	e8 7d ee ff ff       	callq  400f10 <printf@plt>
  402093:	48 83 3d 05 71 20 00 	cmpq   $0x0,0x207105(%rip)        # 6091a0 <dostats>
  40209a:	00 
  40209b:	0f 84 fb 00 00 00    	je     40219c <main+0xe6c>
  4020a1:	48 83 3d 8f 70 20 00 	cmpq   $0x2,0x20708f(%rip)        # 609138 <P>
  4020a8:	02 
  4020a9:	7c 74                	jl     40211f <main+0xdef>
  4020ab:	bb 01 00 00 00       	mov    $0x1,%ebx
  4020b0:	64 49 8b 0e          	mov    %fs:(%r14),%rcx
  4020b4:	64 49 8b 37          	mov    %fs:(%r15),%rsi
  4020b8:	0f 31                	rdtsc  
  4020ba:	48 c1 e2 20          	shl    $0x20,%rdx
  4020be:	48 09 c2             	or     %rax,%rdx
  4020c1:	48 29 ca             	sub    %rcx,%rdx
  4020c4:	48 39 f2             	cmp    %rsi,%rdx
  4020c7:	72 07                	jb     4020d0 <main+0xda0>
  4020c9:	31 c0                	xor    %eax,%eax
  4020cb:	e8 60 50 00 00       	callq  407130 <concord_rdtsc_func>
  4020d0:	48 8b 05 01 71 20 00 	mov    0x207101(%rip),%rax        # 6091d8 <Global>
  4020d7:	48 8b 48 20          	mov    0x20(%rax),%rcx
  4020db:	f2 0f 10 04 d9       	movsd  (%rcx,%rbx,8),%xmm0
  4020e0:	48 8b 08             	mov    (%rax),%rcx
  4020e3:	48 8b 50 08          	mov    0x8(%rax),%rdx
  4020e7:	f2 0f 10 0c d9       	movsd  (%rcx,%rbx,8),%xmm1
  4020ec:	f2 0f 10 14 da       	movsd  (%rdx,%rbx,8),%xmm2
  4020f1:	48 8b 48 10          	mov    0x10(%rax),%rcx
  4020f5:	f2 0f 10 1c d9       	movsd  (%rcx,%rbx,8),%xmm3
  4020fa:	48 8b 40 18          	mov    0x18(%rax),%rax
  4020fe:	f2 0f 10 24 d8       	movsd  (%rax,%rbx,8),%xmm4
  402103:	bf 19 7b 40 00       	mov    $0x407b19,%edi
  402108:	48 89 de             	mov    %rbx,%rsi
  40210b:	b0 05                	mov    $0x5,%al
  40210d:	e8 fe ed ff ff       	callq  400f10 <printf@plt>
  402112:	48 83 c3 01          	add    $0x1,%rbx
  402116:	48 3b 1d 1b 70 20 00 	cmp    0x20701b(%rip),%rbx        # 609138 <P>
  40211d:	7c 91                	jl     4020b0 <main+0xd80>
  40211f:	bf 53 7b 40 00       	mov    $0x407b53,%edi
  402124:	f2 0f 10 44 24 08    	movsd  0x8(%rsp),%xmm0
  40212a:	f2 0f 10 0c 24       	movsd  (%rsp),%xmm1
  40212f:	f2 0f 10 54 24 10    	movsd  0x10(%rsp),%xmm2
  402135:	f2 0f 10 5c 24 18    	movsd  0x18(%rsp),%xmm3
  40213b:	f2 0f 10 64 24 70    	movsd  0x70(%rsp),%xmm4
  402141:	b0 05                	mov    $0x5,%al
  402143:	e8 c8 ed ff ff       	callq  400f10 <printf@plt>
  402148:	bf 8c 7b 40 00       	mov    $0x407b8c,%edi
  40214d:	f2 0f 10 44 24 68    	movsd  0x68(%rsp),%xmm0
  402153:	f2 0f 10 4c 24 50    	movsd  0x50(%rsp),%xmm1
  402159:	f2 0f 10 54 24 40    	movsd  0x40(%rsp),%xmm2
  40215f:	f2 0f 10 5c 24 30    	movsd  0x30(%rsp),%xmm3
  402165:	f2 0f 10 64 24 20    	movsd  0x20(%rsp),%xmm4
  40216b:	b0 05                	mov    $0x5,%al
  40216d:	e8 9e ed ff ff       	callq  400f10 <printf@plt>
  402172:	bf c5 7b 40 00       	mov    $0x407bc5,%edi
  402177:	f2 0f 10 44 24 60    	movsd  0x60(%rsp),%xmm0
  40217d:	f2 0f 10 4c 24 58    	movsd  0x58(%rsp),%xmm1
  402183:	f2 0f 10 54 24 48    	movsd  0x48(%rsp),%xmm2
  402189:	f2 0f 10 5c 24 38    	movsd  0x38(%rsp),%xmm3
  40218f:	f2 0f 10 64 24 28    	movsd  0x28(%rsp),%xmm4
  402195:	b0 05                	mov    $0x5,%al
  402197:	e8 74 ed ff ff       	callq  400f10 <printf@plt>
  40219c:	bf 0a 00 00 00       	mov    $0xa,%edi
  4021a1:	e8 ca ec ff ff       	callq  400e70 <putchar@plt>
  4021a6:	48 8b 05 2b 70 20 00 	mov    0x20702b(%rip),%rax        # 6091d8 <Global>
  4021ad:	48 8b 8c 24 a0 00 00 	mov    0xa0(%rsp),%rcx
  4021b4:	00 
  4021b5:	48 89 48 28          	mov    %rcx,0x28(%rax)
  4021b9:	bf fe 7b 40 00       	mov    $0x407bfe,%edi
  4021be:	e8 ed ec ff ff       	callq  400eb0 <puts@plt>
  4021c3:	48 8b 05 0e 70 20 00 	mov    0x20700e(%rip),%rax        # 6091d8 <Global>
  4021ca:	48 8b 70 28          	mov    0x28(%rax),%rsi
  4021ce:	bf 2d 7c 40 00       	mov    $0x407c2d,%edi
  4021d3:	31 c0                	xor    %eax,%eax
  4021d5:	e8 36 ed ff ff       	callq  400f10 <printf@plt>
  4021da:	48 8b 05 f7 6f 20 00 	mov    0x206ff7(%rip),%rax        # 6091d8 <Global>
  4021e1:	48 8b 70 38          	mov    0x38(%rax),%rsi
  4021e5:	bf 58 7c 40 00       	mov    $0x407c58,%edi
  4021ea:	31 c0                	xor    %eax,%eax
  4021ec:	e8 1f ed ff ff       	callq  400f10 <printf@plt>
  4021f1:	48 8b 05 e0 6f 20 00 	mov    0x206fe0(%rip),%rax        # 6091d8 <Global>
  4021f8:	48 8b 70 30          	mov    0x30(%rax),%rsi
  4021fc:	bf 83 7c 40 00       	mov    $0x407c83,%edi
  402201:	31 c0                	xor    %eax,%eax
  402203:	e8 08 ed ff ff       	callq  400f10 <printf@plt>
  402208:	48 8b 05 c9 6f 20 00 	mov    0x206fc9(%rip),%rax        # 6091d8 <Global>
  40220f:	48 8b 70 30          	mov    0x30(%rax),%rsi
  402213:	48 2b 70 28          	sub    0x28(%rax),%rsi
  402217:	bf ae 7c 40 00       	mov    $0x407cae,%edi
  40221c:	31 c0                	xor    %eax,%eax
  40221e:	e8 ed ec ff ff       	callq  400f10 <printf@plt>
  402223:	48 8b 05 ae 6f 20 00 	mov    0x206fae(%rip),%rax        # 6091d8 <Global>
  40222a:	48 8b 70 30          	mov    0x30(%rax),%rsi
  40222e:	48 2b 70 38          	sub    0x38(%rax),%rsi
  402232:	bf d9 7c 40 00       	mov    $0x407cd9,%edi
  402237:	31 c0                	xor    %eax,%eax
  402239:	e8 d2 ec ff ff       	callq  400f10 <printf@plt>
  40223e:	bf 0a 00 00 00       	mov    $0xa,%edi
  402243:	e8 28 ec ff ff       	callq  400e70 <putchar@plt>
  402248:	48 83 3d 40 6f 20 00 	cmpq   $0x0,0x206f40(%rip)        # 609190 <test_result>
  40224f:	00 
  402250:	74 24                	je     402276 <main+0xf46>
  402252:	bf 04 7d 40 00       	mov    $0x407d04,%edi
  402257:	e8 54 ec ff ff       	callq  400eb0 <puts@plt>
  40225c:	48 8b 3d cd 6e 20 00 	mov    0x206ecd(%rip),%rdi        # 609130 <n>
  402263:	48 8b 35 7e 71 20 00 	mov    0x20717e(%rip),%rsi        # 6093e8 <a>
  40226a:	48 8b 15 6f 71 20 00 	mov    0x20716f(%rip),%rdx        # 6093e0 <rhs>
  402271:	e8 0a 07 00 00       	callq  402980 <CheckResult>
  402276:	48 8d 7c 24 78       	lea    0x78(%rsp),%rdi
  40227b:	31 f6                	xor    %esi,%esi
  40227d:	e8 ae ec ff ff       	callq  400f30 <gettimeofday@plt>
  402282:	48 8b 44 24 78       	mov    0x78(%rsp),%rax
  402287:	48 8b 9c 24 80 00 00 	mov    0x80(%rsp),%rbx
  40228e:	00 
  40228f:	48 2b 84 24 a8 00 00 	sub    0xa8(%rsp),%rax
  402296:	00 
  402297:	48 69 c0 40 42 0f 00 	imul   $0xf4240,%rax,%rax
  40229e:	48 2b 9c 24 b0 00 00 	sub    0xb0(%rsp),%rbx
  4022a5:	00 
  4022a6:	48 01 c3             	add    %rax,%rbx
  4022a9:	e8 52 f0 ff ff       	callq  401300 <print_timing_stats>
  4022ae:	bf 31 7d 40 00       	mov    $0x407d31,%edi
  4022b3:	48 89 de             	mov    %rbx,%rsi
  4022b6:	31 c0                	xor    %eax,%eax
  4022b8:	e8 53 ec ff ff       	callq  400f10 <printf@plt>
  4022bd:	31 ff                	xor    %edi,%edi
  4022bf:	e8 5c ed ff ff       	callq  401020 <exit@plt>
  4022c4:	bf e8 75 40 00       	mov    $0x4075e8,%edi
  4022c9:	e8 e2 eb ff ff       	callq  400eb0 <puts@plt>
  4022ce:	bf fd 75 40 00       	mov    $0x4075fd,%edi
  4022d3:	e8 d8 eb ff ff       	callq  400eb0 <puts@plt>
  4022d8:	bf 06 76 40 00       	mov    $0x407606,%edi
  4022dd:	e8 ce eb ff ff       	callq  400eb0 <puts@plt>
  4022e2:	bf 24 76 40 00       	mov    $0x407624,%edi
  4022e7:	e8 c4 eb ff ff       	callq  400eb0 <puts@plt>
  4022ec:	bf 46 76 40 00       	mov    $0x407646,%edi
  4022f1:	e8 ba eb ff ff       	callq  400eb0 <puts@plt>
  4022f6:	bf 8b 76 40 00       	mov    $0x40768b,%edi
  4022fb:	e8 b0 eb ff ff       	callq  400eb0 <puts@plt>
  402300:	bf ce 76 40 00       	mov    $0x4076ce,%edi
  402305:	e8 a6 eb ff ff       	callq  400eb0 <puts@plt>
  40230a:	bf 14 77 40 00       	mov    $0x407714,%edi
  40230f:	e8 9c eb ff ff       	callq  400eb0 <puts@plt>
  402314:	bf 4a 77 40 00       	mov    $0x40774a,%edi
  402319:	e8 92 eb ff ff       	callq  400eb0 <puts@plt>
  40231e:	bf 5f 77 40 00       	mov    $0x40775f,%edi
  402323:	e8 88 eb ff ff       	callq  400eb0 <puts@plt>
  402328:	bf 80 77 40 00       	mov    $0x407780,%edi
  40232d:	e8 7e eb ff ff       	callq  400eb0 <puts@plt>
  402332:	bf a9 77 40 00       	mov    $0x4077a9,%edi
  402337:	be 80 00 00 00       	mov    $0x80,%esi
  40233c:	ba 01 00 00 00       	mov    $0x1,%edx
  402341:	b9 10 00 00 00       	mov    $0x10,%ecx
  402346:	31 c0                	xor    %eax,%eax
  402348:	e8 c3 eb ff ff       	callq  400f10 <printf@plt>
  40234d:	31 ff                	xor    %edi,%edi
  40234f:	e8 cc ec ff ff       	callq  401020 <exit@plt>
  402354:	bf ca 79 40 00       	mov    $0x4079ca,%edi
  402359:	e8 52 eb ff ff       	callq  400eb0 <puts@plt>
  40235e:	bf ff ff ff ff       	mov    $0xffffffff,%edi
  402363:	e8 b8 ec ff ff       	callq  401020 <exit@plt>
  402368:	bf 34 78 40 00       	mov    $0x407834,%edi
  40236d:	eb 2f                	jmp    40239e <main+0x106e>
  40236f:	bf 54 78 40 00       	mov    $0x407854,%edi
  402374:	eb 28                	jmp    40239e <main+0x106e>
  402376:	bf 76 78 40 00       	mov    $0x407876,%edi
  40237b:	eb 21                	jmp    40239e <main+0x106e>
  40237d:	bf 9a 78 40 00       	mov    $0x40789a,%edi
  402382:	eb 1a                	jmp    40239e <main+0x106e>
  402384:	bf c8 78 40 00       	mov    $0x4078c8,%edi
  402389:	eb 13                	jmp    40239e <main+0x106e>
  40238b:	bf f6 78 40 00       	mov    $0x4078f6,%edi
  402390:	eb 0c                	jmp    40239e <main+0x106e>
  402392:	bf 26 79 40 00       	mov    $0x407926,%edi
  402397:	eb 05                	jmp    40239e <main+0x106e>
  402399:	bf 54 79 40 00       	mov    $0x407954,%edi
  40239e:	e8 4d 00 00 00       	callq  4023f0 <printerr>
  4023a3:	bf ff ff ff ff       	mov    $0xffffffff,%edi
  4023a8:	e8 73 ec ff ff       	callq  401020 <exit@plt>
  4023ad:	bf 84 79 40 00       	mov    $0x407984,%edi
  4023b2:	e8 f9 ea ff ff       	callq  400eb0 <puts@plt>
  4023b7:	bf ff ff ff ff       	mov    $0xffffffff,%edi
  4023bc:	e8 5f ec ff ff       	callq  401020 <exit@plt>
  4023c1:	bf 84 79 40 00       	mov    $0x407984,%edi
  4023c6:	e8 e5 ea ff ff       	callq  400eb0 <puts@plt>
  4023cb:	48 8b 3d 06 6e 20 00 	mov    0x206e06(%rip),%rdi        # 6091d8 <Global>
  4023d2:	48 83 c7 50          	add    $0x50,%rdi
  4023d6:	e8 45 eb ff ff       	callq  400f20 <pthread_mutex_destroy@plt>
  4023db:	bf ff ff ff ff       	mov    $0xffffffff,%edi
  4023e0:	e8 3b ec ff ff       	callq  401020 <exit@plt>
  4023e5:	66 2e 0f 1f 84 00 00 	nopw   %cs:0x0(%rax,%rax,1)
  4023ec:	00 00 00 
  4023ef:	90                   	nop

00000000004023f0 <printerr>:
  4023f0:	48 89 fa             	mov    %rdi,%rdx
  4023f3:	48 8b 3d 86 6d 20 00 	mov    0x206d86(%rip),%rdi        # 609180 <stderr@@GLIBC_2.2.5>
  4023fa:	be e3 7d 40 00       	mov    $0x407de3,%esi
  4023ff:	31 c0                	xor    %eax,%eax
  402401:	e9 4a eb ff ff       	jmpq   400f50 <fprintf@plt>
  402406:	66 2e 0f 1f 84 00 00 	nopw   %cs:0x0(%rax,%rax,1)
  40240d:	00 00 00 

0000000000402410 <SlaveStart>:
  402410:	53                   	push   %rbx
  402411:	e8 4a ed ff ff       	callq  401160 <init_stats>
  402416:	bf b8 00 00 00       	mov    $0xb8,%edi
  40241b:	48 03 3d b6 6d 20 00 	add    0x206db6(%rip),%rdi        # 6091d8 <Global>
  402422:	e8 39 ec ff ff       	callq  401060 <pthread_mutex_lock@plt>
  402427:	48 8b 3d aa 6d 20 00 	mov    0x206daa(%rip),%rdi        # 6091d8 <Global>
  40242e:	48 8b 5f 48          	mov    0x48(%rdi),%rbx
  402432:	48 8d 43 01          	lea    0x1(%rbx),%rax
  402436:	48 89 47 48          	mov    %rax,0x48(%rdi)
  40243a:	48 81 c7 b8 00 00 00 	add    $0xb8,%rdi
  402441:	e8 5a eb ff ff       	callq  400fa0 <pthread_mutex_unlock@plt>
  402446:	48 8b 3d e3 6c 20 00 	mov    0x206ce3(%rip),%rdi        # 609130 <n>
  40244d:	48 8b 35 ec 6c 20 00 	mov    0x206cec(%rip),%rsi        # 609140 <block_size>
  402454:	48 8b 0d 45 6d 20 00 	mov    0x206d45(%rip),%rcx        # 6091a0 <dostats>
  40245b:	48 89 da             	mov    %rbx,%rdx
  40245e:	e8 2d 00 00 00       	callq  402490 <OneSolve>
  402463:	bf ba 00 00 00       	mov    $0xba,%edi
  402468:	31 c0                	xor    %eax,%eax
  40246a:	e8 f1 ea ff ff       	callq  400f60 <syscall@plt>
  40246f:	64 f2 0f 10 04 25 c8 	movsd  %fs:0xffffffffffffffc8,%xmm0
  402476:	ff ff ff 
  402479:	bf bd 75 40 00       	mov    $0x4075bd,%edi
  40247e:	48 89 c6             	mov    %rax,%rsi
  402481:	b0 01                	mov    $0x1,%al
  402483:	5b                   	pop    %rbx
  402484:	e9 87 ea ff ff       	jmpq   400f10 <printf@plt>
  402489:	0f 1f 80 00 00 00 00 	nopl   0x0(%rax)

0000000000402490 <OneSolve>:
  402490:	55                   	push   %rbp
  402491:	41 57                	push   %r15
  402493:	41 56                	push   %r14
  402495:	41 55                	push   %r13
  402497:	41 54                	push   %r12
  402499:	53                   	push   %rbx
  40249a:	48 83 ec 38          	sub    $0x38,%rsp
  40249e:	48 89 cb             	mov    %rcx,%rbx
  4024a1:	49 89 d6             	mov    %rdx,%r14
  4024a4:	49 89 f4             	mov    %rsi,%r12
  4024a7:	48 89 fd             	mov    %rdi,%rbp
  4024aa:	bf 20 00 00 00       	mov    $0x20,%edi
  4024af:	e8 fc ea ff ff       	callq  400fb0 <malloc@plt>
  4024b4:	48 85 c0             	test   %rax,%rax
  4024b7:	0f 84 9e 04 00 00    	je     40295b <OneSolve+0x4cb>
  4024bd:	49 89 c7             	mov    %rax,%r15
  4024c0:	48 89 6c 24 30       	mov    %rbp,0x30(%rsp)
  4024c5:	48 c7 40 18 00 00 00 	movq   $0x0,0x18(%rax)
  4024cc:	00 
  4024cd:	48 c7 40 10 00 00 00 	movq   $0x0,0x10(%rax)
  4024d4:	00 
  4024d5:	48 c7 40 08 00 00 00 	movq   $0x0,0x8(%rax)
  4024dc:	00 
  4024dd:	48 c7 00 00 00 00 00 	movq   $0x0,(%rax)
  4024e4:	48 8b 3d ed 6c 20 00 	mov    0x206ced(%rip),%rdi        # 6091d8 <Global>
  4024eb:	48 83 c7 50          	add    $0x50,%rdi
  4024ef:	e8 6c eb ff ff       	callq  401060 <pthread_mutex_lock@plt>
  4024f4:	85 c0                	test   %eax,%eax
  4024f6:	0f 85 4b 04 00 00    	jne    402947 <OneSolve+0x4b7>
  4024fc:	48 8b 3d d5 6c 20 00 	mov    0x206cd5(%rip),%rdi        # 6091d8 <Global>
  402503:	48 8b 87 a8 00 00 00 	mov    0xa8(%rdi),%rax
  40250a:	48 8b af b0 00 00 00 	mov    0xb0(%rdi),%rbp
  402511:	48 83 c0 01          	add    $0x1,%rax
  402515:	48 89 87 a8 00 00 00 	mov    %rax,0xa8(%rdi)
  40251c:	48 3b 05 15 6c 20 00 	cmp    0x206c15(%rip),%rax        # 609138 <P>
  402523:	48 89 5c 24 18       	mov    %rbx,0x18(%rsp)
  402528:	75 28                	jne    402552 <OneSolve+0xc2>
  40252a:	31 c0                	xor    %eax,%eax
  40252c:	48 85 ed             	test   %rbp,%rbp
  40252f:	0f 94 c0             	sete   %al
  402532:	48 89 87 b0 00 00 00 	mov    %rax,0xb0(%rdi)
  402539:	48 c7 87 a8 00 00 00 	movq   $0x0,0xa8(%rdi)
  402540:	00 00 00 00 
  402544:	48 83 c7 78          	add    $0x78,%rdi
  402548:	e8 53 e9 ff ff       	callq  400ea0 <pthread_cond_broadcast@plt>
  40254d:	e9 90 00 00 00       	jmpq   4025e2 <OneSolve+0x152>
  402552:	48 8d 74 24 08       	lea    0x8(%rsp),%rsi
  402557:	bf 01 00 00 00       	mov    $0x1,%edi
  40255c:	e8 8f e9 ff ff       	callq  400ef0 <pthread_setcancelstate@plt>
  402561:	49 c7 c5 f8 ff ff ff 	mov    $0xfffffffffffffff8,%r13
  402568:	48 c7 c3 b0 ff ff ff 	mov    $0xffffffffffffffb0,%rbx
  40256f:	90                   	nop
  402570:	64 49 8b 4d 00       	mov    %fs:0x0(%r13),%rcx
  402575:	64 48 8b 33          	mov    %fs:(%rbx),%rsi
  402579:	0f 31                	rdtsc  
  40257b:	48 c1 e2 20          	shl    $0x20,%rdx
  40257f:	48 09 c2             	or     %rax,%rdx
  402582:	48 29 ca             	sub    %rcx,%rdx
  402585:	48 39 f2             	cmp    %rsi,%rdx
  402588:	72 07                	jb     402591 <OneSolve+0x101>
  40258a:	31 c0                	xor    %eax,%eax
  40258c:	e8 9f 4b 00 00       	callq  407130 <concord_rdtsc_func>
  402591:	48 8b 35 40 6c 20 00 	mov    0x206c40(%rip),%rsi        # 6091d8 <Global>
  402598:	48 3b ae b0 00 00 00 	cmp    0xb0(%rsi),%rbp
  40259f:	75 2e                	jne    4025cf <OneSolve+0x13f>
  4025a1:	48 8d 7e 78          	lea    0x78(%rsi),%rdi
  4025a5:	48 83 c6 50          	add    $0x50,%rsi
  4025a9:	e8 22 e9 ff ff       	callq  400ed0 <pthread_cond_wait@plt>
  4025ae:	48 8b 35 23 6c 20 00 	mov    0x206c23(%rip),%rsi        # 6091d8 <Global>
  4025b5:	48 3b ae b0 00 00 00 	cmp    0xb0(%rsi),%rbp
  4025bc:	75 11                	jne    4025cf <OneSolve+0x13f>
  4025be:	48 8d 7e 78          	lea    0x78(%rsi),%rdi
  4025c2:	48 83 c6 50          	add    $0x50,%rsi
  4025c6:	e8 05 e9 ff ff       	callq  400ed0 <pthread_cond_wait@plt>
  4025cb:	85 c0                	test   %eax,%eax
  4025cd:	74 a1                	je     402570 <OneSolve+0xe0>
  4025cf:	8b 7c 24 08          	mov    0x8(%rsp),%edi
  4025d3:	48 8d 74 24 28       	lea    0x28(%rsp),%rsi
  4025d8:	e8 13 e9 ff ff       	callq  400ef0 <pthread_setcancelstate@plt>
  4025dd:	48 8b 5c 24 18       	mov    0x18(%rsp),%rbx
  4025e2:	48 8b 3d ef 6b 20 00 	mov    0x206bef(%rip),%rdi        # 6091d8 <Global>
  4025e9:	48 83 c7 50          	add    $0x50,%rdi
  4025ed:	e8 ae e9 ff ff       	callq  400fa0 <pthread_mutex_unlock@plt>
  4025f2:	48 8b 3d df 6b 20 00 	mov    0x206bdf(%rip),%rdi        # 6091d8 <Global>
  4025f9:	48 83 c7 50          	add    $0x50,%rdi
  4025fd:	e8 5e ea ff ff       	callq  401060 <pthread_mutex_lock@plt>
  402602:	85 c0                	test   %eax,%eax
  402604:	0f 85 3d 03 00 00    	jne    402947 <OneSolve+0x4b7>
  40260a:	48 8b 3d c7 6b 20 00 	mov    0x206bc7(%rip),%rdi        # 6091d8 <Global>
  402611:	48 8b 87 a8 00 00 00 	mov    0xa8(%rdi),%rax
  402618:	48 8b af b0 00 00 00 	mov    0xb0(%rdi),%rbp
  40261f:	48 83 c0 01          	add    $0x1,%rax
  402623:	48 89 87 a8 00 00 00 	mov    %rax,0xa8(%rdi)
  40262a:	48 3b 05 07 6b 20 00 	cmp    0x206b07(%rip),%rax        # 609138 <P>
  402631:	75 28                	jne    40265b <OneSolve+0x1cb>
  402633:	31 c0                	xor    %eax,%eax
  402635:	48 85 ed             	test   %rbp,%rbp
  402638:	0f 94 c0             	sete   %al
  40263b:	48 89 87 b0 00 00 00 	mov    %rax,0xb0(%rdi)
  402642:	48 c7 87 a8 00 00 00 	movq   $0x0,0xa8(%rdi)
  402649:	00 00 00 00 
  40264d:	48 83 c7 78          	add    $0x78,%rdi
  402651:	e8 4a e8 ff ff       	callq  400ea0 <pthread_cond_broadcast@plt>
  402656:	e9 97 00 00 00       	jmpq   4026f2 <OneSolve+0x262>
  40265b:	48 8d 74 24 08       	lea    0x8(%rsp),%rsi
  402660:	bf 01 00 00 00       	mov    $0x1,%edi
  402665:	e8 86 e8 ff ff       	callq  400ef0 <pthread_setcancelstate@plt>
  40266a:	49 c7 c5 f8 ff ff ff 	mov    $0xfffffffffffffff8,%r13
  402671:	48 c7 c3 b0 ff ff ff 	mov    $0xffffffffffffffb0,%rbx
  402678:	0f 1f 84 00 00 00 00 	nopl   0x0(%rax,%rax,1)
  40267f:	00 
  402680:	64 49 8b 4d 00       	mov    %fs:0x0(%r13),%rcx
  402685:	64 48 8b 33          	mov    %fs:(%rbx),%rsi
  402689:	0f 31                	rdtsc  
  40268b:	48 c1 e2 20          	shl    $0x20,%rdx
  40268f:	48 09 c2             	or     %rax,%rdx
  402692:	48 29 ca             	sub    %rcx,%rdx
  402695:	48 39 f2             	cmp    %rsi,%rdx
  402698:	72 07                	jb     4026a1 <OneSolve+0x211>
  40269a:	31 c0                	xor    %eax,%eax
  40269c:	e8 8f 4a 00 00       	callq  407130 <concord_rdtsc_func>
  4026a1:	48 8b 35 30 6b 20 00 	mov    0x206b30(%rip),%rsi        # 6091d8 <Global>
  4026a8:	48 3b ae b0 00 00 00 	cmp    0xb0(%rsi),%rbp
  4026af:	75 2e                	jne    4026df <OneSolve+0x24f>
  4026b1:	48 8d 7e 78          	lea    0x78(%rsi),%rdi
  4026b5:	48 83 c6 50          	add    $0x50,%rsi
  4026b9:	e8 12 e8 ff ff       	callq  400ed0 <pthread_cond_wait@plt>
  4026be:	48 8b 35 13 6b 20 00 	mov    0x206b13(%rip),%rsi        # 6091d8 <Global>
  4026c5:	48 3b ae b0 00 00 00 	cmp    0xb0(%rsi),%rbp
  4026cc:	75 11                	jne    4026df <OneSolve+0x24f>
  4026ce:	48 8d 7e 78          	lea    0x78(%rsi),%rdi
  4026d2:	48 83 c6 50          	add    $0x50,%rsi
  4026d6:	e8 f5 e7 ff ff       	callq  400ed0 <pthread_cond_wait@plt>
  4026db:	85 c0                	test   %eax,%eax
  4026dd:	74 a1                	je     402680 <OneSolve+0x1f0>
  4026df:	8b 7c 24 08          	mov    0x8(%rsp),%edi
  4026e3:	48 8d 74 24 28       	lea    0x28(%rsp),%rsi
  4026e8:	e8 03 e8 ff ff       	callq  400ef0 <pthread_setcancelstate@plt>
  4026ed:	48 8b 5c 24 18       	mov    0x18(%rsp),%rbx
  4026f2:	48 8b 3d df 6a 20 00 	mov    0x206adf(%rip),%rdi        # 6091d8 <Global>
  4026f9:	48 83 c7 50          	add    $0x50,%rdi
  4026fd:	e8 9e e8 ff ff       	callq  400fa0 <pthread_mutex_unlock@plt>
  402702:	4d 85 f6             	test   %r14,%r14
  402705:	0f 94 c0             	sete   %al
  402708:	48 85 db             	test   %rbx,%rbx
  40270b:	41 0f 95 c5          	setne  %r13b
  40270f:	41 08 c5             	or     %al,%r13b
  402712:	48 8b 6c 24 30       	mov    0x30(%rsp),%rbp
  402717:	74 4f                	je     402768 <OneSolve+0x2d8>
  402719:	48 8d 7c 24 08       	lea    0x8(%rsp),%rdi
  40271e:	31 f6                	xor    %esi,%esi
  402720:	e8 0b e8 ff ff       	callq  400f30 <gettimeofday@plt>
  402725:	48 69 44 24 08 40 42 	imul   $0xf4240,0x8(%rsp),%rax
  40272c:	0f 00 
  40272e:	48 03 44 24 10       	add    0x10(%rsp),%rax
  402733:	48 89 44 24 20       	mov    %rax,0x20(%rsp)
  402738:	48 89 ef             	mov    %rbp,%rdi
  40273b:	4c 89 e6             	mov    %r12,%rsi
  40273e:	4c 89 f2             	mov    %r14,%rdx
  402741:	4c 89 f9             	mov    %r15,%rcx
  402744:	49 89 d8             	mov    %rbx,%r8
  402747:	e8 c4 09 00 00       	callq  403110 <lu>
  40274c:	48 8d 7c 24 08       	lea    0x8(%rsp),%rdi
  402751:	31 f6                	xor    %esi,%esi
  402753:	e8 d8 e7 ff ff       	callq  400f30 <gettimeofday@plt>
  402758:	48 69 5c 24 08 40 42 	imul   $0xf4240,0x8(%rsp),%rbx
  40275f:	0f 00 
  402761:	48 03 5c 24 10       	add    0x10(%rsp),%rbx
  402766:	eb 14                	jmp    40277c <OneSolve+0x2ec>
  402768:	48 89 ef             	mov    %rbp,%rdi
  40276b:	4c 89 e6             	mov    %r12,%rsi
  40276e:	4c 89 f2             	mov    %r14,%rdx
  402771:	4c 89 f9             	mov    %r15,%rcx
  402774:	45 31 c0             	xor    %r8d,%r8d
  402777:	e8 94 09 00 00       	callq  403110 <lu>
  40277c:	48 8b 3d 55 6a 20 00 	mov    0x206a55(%rip),%rdi        # 6091d8 <Global>
  402783:	48 83 c7 50          	add    $0x50,%rdi
  402787:	e8 d4 e8 ff ff       	callq  401060 <pthread_mutex_lock@plt>
  40278c:	85 c0                	test   %eax,%eax
  40278e:	0f 85 b3 01 00 00    	jne    402947 <OneSolve+0x4b7>
  402794:	48 8b 3d 3d 6a 20 00 	mov    0x206a3d(%rip),%rdi        # 6091d8 <Global>
  40279b:	48 8b 87 a8 00 00 00 	mov    0xa8(%rdi),%rax
  4027a2:	48 8b af b0 00 00 00 	mov    0xb0(%rdi),%rbp
  4027a9:	48 83 c0 01          	add    $0x1,%rax
  4027ad:	48 89 87 a8 00 00 00 	mov    %rax,0xa8(%rdi)
  4027b4:	48 3b 05 7d 69 20 00 	cmp    0x20697d(%rip),%rax        # 609138 <P>
  4027bb:	75 2d                	jne    4027ea <OneSolve+0x35a>
  4027bd:	31 c0                	xor    %eax,%eax
  4027bf:	48 85 ed             	test   %rbp,%rbp
  4027c2:	0f 94 c0             	sete   %al
  4027c5:	48 89 87 b0 00 00 00 	mov    %rax,0xb0(%rdi)
  4027cc:	48 c7 87 a8 00 00 00 	movq   $0x0,0xa8(%rdi)
  4027d3:	00 00 00 00 
  4027d7:	48 83 c7 78          	add    $0x78,%rdi
  4027db:	e8 c0 e6 ff ff       	callq  400ea0 <pthread_cond_broadcast@plt>
  4027e0:	48 8b 6c 24 20       	mov    0x20(%rsp),%rbp
  4027e5:	e9 9d 00 00 00       	jmpq   402887 <OneSolve+0x3f7>
  4027ea:	48 89 5c 24 18       	mov    %rbx,0x18(%rsp)
  4027ef:	48 8d 74 24 08       	lea    0x8(%rsp),%rsi
  4027f4:	bf 01 00 00 00       	mov    $0x1,%edi
  4027f9:	e8 f2 e6 ff ff       	callq  400ef0 <pthread_setcancelstate@plt>
  4027fe:	48 c7 c3 f8 ff ff ff 	mov    $0xfffffffffffffff8,%rbx
  402805:	49 c7 c4 b0 ff ff ff 	mov    $0xffffffffffffffb0,%r12
  40280c:	0f 1f 40 00          	nopl   0x0(%rax)
  402810:	64 48 8b 0b          	mov    %fs:(%rbx),%rcx
  402814:	64 49 8b 34 24       	mov    %fs:(%r12),%rsi
  402819:	0f 31                	rdtsc  
  40281b:	48 c1 e2 20          	shl    $0x20,%rdx
  40281f:	48 09 c2             	or     %rax,%rdx
  402822:	48 29 ca             	sub    %rcx,%rdx
  402825:	48 39 f2             	cmp    %rsi,%rdx
  402828:	72 07                	jb     402831 <OneSolve+0x3a1>
  40282a:	31 c0                	xor    %eax,%eax
  40282c:	e8 ff 48 00 00       	callq  407130 <concord_rdtsc_func>
  402831:	48 8b 35 a0 69 20 00 	mov    0x2069a0(%rip),%rsi        # 6091d8 <Global>
  402838:	48 3b ae b0 00 00 00 	cmp    0xb0(%rsi),%rbp
  40283f:	75 2e                	jne    40286f <OneSolve+0x3df>
  402841:	48 8d 7e 78          	lea    0x78(%rsi),%rdi
  402845:	48 83 c6 50          	add    $0x50,%rsi
  402849:	e8 82 e6 ff ff       	callq  400ed0 <pthread_cond_wait@plt>
  40284e:	48 8b 35 83 69 20 00 	mov    0x206983(%rip),%rsi        # 6091d8 <Global>
  402855:	48 3b ae b0 00 00 00 	cmp    0xb0(%rsi),%rbp
  40285c:	75 11                	jne    40286f <OneSolve+0x3df>
  40285e:	48 8d 7e 78          	lea    0x78(%rsi),%rdi
  402862:	48 83 c6 50          	add    $0x50,%rsi
  402866:	e8 65 e6 ff ff       	callq  400ed0 <pthread_cond_wait@plt>
  40286b:	85 c0                	test   %eax,%eax
  40286d:	74 a1                	je     402810 <OneSolve+0x380>
  40286f:	8b 7c 24 08          	mov    0x8(%rsp),%edi
  402873:	48 8d 74 24 28       	lea    0x28(%rsp),%rsi
  402878:	e8 73 e6 ff ff       	callq  400ef0 <pthread_setcancelstate@plt>
  40287d:	48 8b 6c 24 20       	mov    0x20(%rsp),%rbp
  402882:	48 8b 5c 24 18       	mov    0x18(%rsp),%rbx
  402887:	48 8b 3d 4a 69 20 00 	mov    0x20694a(%rip),%rdi        # 6091d8 <Global>
  40288e:	48 83 c7 50          	add    $0x50,%rdi
  402892:	e8 09 e7 ff ff       	callq  400fa0 <pthread_mutex_unlock@plt>
  402897:	45 84 ed             	test   %r13b,%r13b
  40289a:	0f 84 80 00 00 00    	je     402920 <OneSolve+0x490>
  4028a0:	48 8d 7c 24 08       	lea    0x8(%rsp),%rdi
  4028a5:	31 f6                	xor    %esi,%esi
  4028a7:	e8 84 e6 ff ff       	callq  400f30 <gettimeofday@plt>
  4028ac:	48 69 44 24 08 40 42 	imul   $0xf4240,0x8(%rsp),%rax
  4028b3:	0f 00 
  4028b5:	48 03 44 24 10       	add    0x10(%rsp),%rax
  4028ba:	49 8b 0f             	mov    (%r15),%rcx
  4028bd:	48 8b 15 14 69 20 00 	mov    0x206914(%rip),%rdx        # 6091d8 <Global>
  4028c4:	48 8b 32             	mov    (%rdx),%rsi
  4028c7:	4a 89 0c f6          	mov    %rcx,(%rsi,%r14,8)
  4028cb:	49 8b 4f 08          	mov    0x8(%r15),%rcx
  4028cf:	48 8b 72 08          	mov    0x8(%rdx),%rsi
  4028d3:	4a 89 0c f6          	mov    %rcx,(%rsi,%r14,8)
  4028d7:	49 8b 4f 10          	mov    0x10(%r15),%rcx
  4028db:	48 8b 72 10          	mov    0x10(%rdx),%rsi
  4028df:	4a 89 0c f6          	mov    %rcx,(%rsi,%r14,8)
  4028e3:	49 8b 4f 18          	mov    0x18(%r15),%rcx
  4028e7:	48 8b 72 18          	mov    0x18(%rdx),%rsi
  4028eb:	4a 89 0c f6          	mov    %rcx,(%rsi,%r14,8)
  4028ef:	48 89 d9             	mov    %rbx,%rcx
  4028f2:	48 29 e9             	sub    %rbp,%rcx
  4028f5:	66 48 0f 6e c1       	movq   %rcx,%xmm0
  4028fa:	66 0f 62 05 1e 4c 00 	punpckldq 0x4c1e(%rip),%xmm0        # 407520 <_IO_stdin_used+0xc0>
  402901:	00 
  402902:	66 0f 5c 05 26 4c 00 	subpd  0x4c26(%rip),%xmm0        # 407530 <_IO_stdin_used+0xd0>
  402909:	00 
  40290a:	66 0f 28 c8          	movapd %xmm0,%xmm1
  40290e:	66 0f 15 c8          	unpckhpd %xmm0,%xmm1
  402912:	f2 0f 58 c8          	addsd  %xmm0,%xmm1
  402916:	48 8b 4a 20          	mov    0x20(%rdx),%rcx
  40291a:	f2 42 0f 11 0c f1    	movsd  %xmm1,(%rcx,%r14,8)
  402920:	4d 85 f6             	test   %r14,%r14
  402923:	75 13                	jne    402938 <OneSolve+0x4a8>
  402925:	48 8b 0d ac 68 20 00 	mov    0x2068ac(%rip),%rcx        # 6091d8 <Global>
  40292c:	48 89 69 38          	mov    %rbp,0x38(%rcx)
  402930:	48 89 59 40          	mov    %rbx,0x40(%rcx)
  402934:	48 89 41 30          	mov    %rax,0x30(%rcx)
  402938:	48 83 c4 38          	add    $0x38,%rsp
  40293c:	5b                   	pop    %rbx
  40293d:	41 5c                	pop    %r12
  40293f:	41 5d                	pop    %r13
  402941:	41 5e                	pop    %r14
  402943:	41 5f                	pop    %r15
  402945:	5d                   	pop    %rbp
  402946:	c3                   	retq   
  402947:	bf b8 7d 40 00       	mov    $0x407db8,%edi
  40294c:	e8 5f e5 ff ff       	callq  400eb0 <puts@plt>
  402951:	bf ff ff ff ff       	mov    $0xffffffff,%edi
  402956:	e8 c5 e6 ff ff       	callq  401020 <exit@plt>
  40295b:	48 8b 3d 1e 68 20 00 	mov    0x20681e(%rip),%rdi        # 609180 <stderr@@GLIBC_2.2.5>
  402962:	be 8f 7d 40 00       	mov    $0x407d8f,%esi
  402967:	4c 89 f2             	mov    %r14,%rdx
  40296a:	31 c0                	xor    %eax,%eax
  40296c:	e8 df e5 ff ff       	callq  400f50 <fprintf@plt>
  402971:	bf ff ff ff ff       	mov    $0xffffffff,%edi
  402976:	e8 a5 e6 ff ff       	callq  401020 <exit@plt>
  40297b:	0f 1f 44 00 00       	nopl   0x0(%rax,%rax,1)

0000000000402980 <CheckResult>:
  402980:	55                   	push   %rbp
  402981:	41 57                	push   %r15
  402983:	41 56                	push   %r14
  402985:	41 55                	push   %r13
  402987:	41 54                	push   %r12
  402989:	53                   	push   %rbx
  40298a:	48 83 ec 58          	sub    $0x58,%rsp
  40298e:	49 89 d4             	mov    %rdx,%r12
  402991:	48 89 74 24 30       	mov    %rsi,0x30(%rsp)
  402996:	48 89 fd             	mov    %rdi,%rbp
  402999:	4c 8d 2c fd 00 00 00 	lea    0x0(,%rdi,8),%r13
  4029a0:	00 
  4029a1:	4c 89 ef             	mov    %r13,%rdi
  4029a4:	e8 07 e6 ff ff       	callq  400fb0 <malloc@plt>
  4029a9:	48 85 c0             	test   %rax,%rax
  4029ac:	0f 84 3f 07 00 00    	je     4030f1 <CheckResult+0x771>
  4029b2:	48 89 c3             	mov    %rax,%rbx
  4029b5:	48 85 ed             	test   %rbp,%rbp
  4029b8:	0f 8e 13 07 00 00    	jle    4030d1 <CheckResult+0x751>
  4029be:	48 89 df             	mov    %rbx,%rdi
  4029c1:	4c 89 e6             	mov    %r12,%rsi
  4029c4:	4c 89 ea             	mov    %r13,%rdx
  4029c7:	e8 b4 e5 ff ff       	callq  400f80 <memcpy@plt>
  4029cc:	4c 8d 7d fd          	lea    -0x3(%rbp),%r15
  4029d0:	89 e8                	mov    %ebp,%eax
  4029d2:	83 e0 01             	and    $0x1,%eax
  4029d5:	48 89 44 24 08       	mov    %rax,0x8(%rsp)
  4029da:	48 83 f0 01          	xor    $0x1,%rax
  4029de:	48 89 44 24 38       	mov    %rax,0x38(%rsp)
  4029e3:	4c 8b 6c 24 30       	mov    0x30(%rsp),%r13
  4029e8:	4d 8d 75 08          	lea    0x8(%r13),%r14
  4029ec:	48 8d 45 fe          	lea    -0x2(%rbp),%rax
  4029f0:	48 89 44 24 10       	mov    %rax,0x10(%rsp)
  4029f5:	48 c7 c7 b0 ff ff ff 	mov    $0xffffffffffffffb0,%rdi
  4029fc:	31 c9                	xor    %ecx,%ecx
  4029fe:	49 89 ec             	mov    %rbp,%r12
  402a01:	eb 16                	jmp    402a19 <CheckResult+0x99>
  402a03:	66 2e 0f 1f 84 00 00 	nopw   %cs:0x0(%rax,%rax,1)
  402a0a:	00 00 00 
  402a0d:	0f 1f 00             	nopl   (%rax)
  402a10:	4c 39 e1             	cmp    %r12,%rcx
  402a13:	0f 84 db 01 00 00    	je     402bf4 <CheckResult+0x274>
  402a19:	48 89 cd             	mov    %rcx,%rbp
  402a1c:	48 c7 c0 f8 ff ff ff 	mov    $0xfffffffffffffff8,%rax
  402a23:	64 48 8b 08          	mov    %fs:(%rax),%rcx
  402a27:	64 48 8b 37          	mov    %fs:(%rdi),%rsi
  402a2b:	0f 31                	rdtsc  
  402a2d:	48 c1 e2 20          	shl    $0x20,%rdx
  402a31:	48 09 c2             	or     %rax,%rdx
  402a34:	48 29 ca             	sub    %rcx,%rdx
  402a37:	48 39 f2             	cmp    %rsi,%rdx
  402a3a:	72 0e                	jb     402a4a <CheckResult+0xca>
  402a3c:	31 c0                	xor    %eax,%eax
  402a3e:	e8 ed 46 00 00       	callq  407130 <concord_rdtsc_func>
  402a43:	48 c7 c7 b0 ff ff ff 	mov    $0xffffffffffffffb0,%rdi
  402a4a:	f2 0f 10 04 eb       	movsd  (%rbx,%rbp,8),%xmm0
  402a4f:	48 89 ea             	mov    %rbp,%rdx
  402a52:	49 0f af d4          	imul   %r12,%rdx
  402a56:	48 8d 04 2a          	lea    (%rdx,%rbp,1),%rax
  402a5a:	f2 41 0f 5e 44 c5 00 	divsd  0x0(%r13,%rax,8),%xmm0
  402a61:	f2 0f 11 04 eb       	movsd  %xmm0,(%rbx,%rbp,8)
  402a66:	48 89 e8             	mov    %rbp,%rax
  402a69:	48 83 c8 01          	or     $0x1,%rax
  402a6d:	4c 39 e0             	cmp    %r12,%rax
  402a70:	0f 8d aa 00 00 00    	jge    402b20 <CheckResult+0x1a0>
  402a76:	48 8d 0c 10          	lea    (%rax,%rdx,1),%rcx
  402a7a:	f2 41 0f 10 4c cd 00 	movsd  0x0(%r13,%rcx,8),%xmm1
  402a81:	f2 0f 59 c8          	mulsd  %xmm0,%xmm1
  402a85:	f2 0f 10 14 c3       	movsd  (%rbx,%rax,8),%xmm2
  402a8a:	f2 0f 5c d1          	subsd  %xmm1,%xmm2
  402a8e:	f2 0f 11 14 c3       	movsd  %xmm2,(%rbx,%rax,8)
  402a93:	48 8d 4d 02          	lea    0x2(%rbp),%rcx
  402a97:	4c 39 e1             	cmp    %r12,%rcx
  402a9a:	0f 84 84 00 00 00    	je     402b24 <CheckResult+0x1a4>
  402aa0:	48 89 ce             	mov    %rcx,%rsi
  402aa3:	48 83 7c 24 08 00    	cmpq   $0x0,0x8(%rsp)
  402aa9:	74 23                	je     402ace <CheckResult+0x14e>
  402aab:	48 8d 34 11          	lea    (%rcx,%rdx,1),%rsi
  402aaf:	f2 41 0f 10 4c f5 00 	movsd  0x0(%r13,%rsi,8),%xmm1
  402ab6:	f2 0f 59 c8          	mulsd  %xmm0,%xmm1
  402aba:	f2 0f 10 54 eb 10    	movsd  0x10(%rbx,%rbp,8),%xmm2
  402ac0:	f2 0f 5c d1          	subsd  %xmm1,%xmm2
  402ac4:	f2 0f 11 54 eb 10    	movsd  %xmm2,0x10(%rbx,%rbp,8)
  402aca:	48 8d 75 03          	lea    0x3(%rbp),%rsi
  402ace:	49 39 ef             	cmp    %rbp,%r15
  402ad1:	74 51                	je     402b24 <CheckResult+0x1a4>
  402ad3:	49 8d 14 d6          	lea    (%r14,%rdx,8),%rdx
  402ad7:	66 0f 1f 84 00 00 00 	nopw   0x0(%rax,%rax,1)
  402ade:	00 00 
  402ae0:	f2 0f 59 44 f2 f8    	mulsd  -0x8(%rdx,%rsi,8),%xmm0
  402ae6:	f2 0f 10 0c f3       	movsd  (%rbx,%rsi,8),%xmm1
  402aeb:	f2 0f 5c c8          	subsd  %xmm0,%xmm1
  402aef:	f2 0f 10 44 f3 08    	movsd  0x8(%rbx,%rsi,8),%xmm0
  402af5:	f2 0f 11 0c f3       	movsd  %xmm1,(%rbx,%rsi,8)
  402afa:	f2 0f 10 0c eb       	movsd  (%rbx,%rbp,8),%xmm1
  402aff:	f2 0f 59 0c f2       	mulsd  (%rdx,%rsi,8),%xmm1
  402b04:	f2 0f 5c c1          	subsd  %xmm1,%xmm0
  402b08:	f2 0f 11 44 f3 08    	movsd  %xmm0,0x8(%rbx,%rsi,8)
  402b0e:	48 39 74 24 10       	cmp    %rsi,0x10(%rsp)
  402b13:	74 0f                	je     402b24 <CheckResult+0x1a4>
  402b15:	48 83 c6 02          	add    $0x2,%rsi
  402b19:	f2 0f 10 04 eb       	movsd  (%rbx,%rbp,8),%xmm0
  402b1e:	eb c0                	jmp    402ae0 <CheckResult+0x160>
  402b20:	48 8d 4d 02          	lea    0x2(%rbp),%rcx
  402b24:	f2 0f 10 04 c3       	movsd  (%rbx,%rax,8),%xmm0
  402b29:	48 89 c6             	mov    %rax,%rsi
  402b2c:	49 0f af f4          	imul   %r12,%rsi
  402b30:	48 8d 14 06          	lea    (%rsi,%rax,1),%rdx
  402b34:	f2 41 0f 5e 44 d5 00 	divsd  0x0(%r13,%rdx,8),%xmm0
  402b3b:	f2 0f 11 04 c3       	movsd  %xmm0,(%rbx,%rax,8)
  402b40:	4c 39 e1             	cmp    %r12,%rcx
  402b43:	0f 8d c7 fe ff ff    	jge    402a10 <CheckResult+0x90>
  402b49:	48 8d 14 0e          	lea    (%rsi,%rcx,1),%rdx
  402b4d:	f2 41 0f 10 4c d5 00 	movsd  0x0(%r13,%rdx,8),%xmm1
  402b54:	f2 0f 59 c8          	mulsd  %xmm0,%xmm1
  402b58:	f2 0f 10 14 cb       	movsd  (%rbx,%rcx,8),%xmm2
  402b5d:	f2 0f 5c d1          	subsd  %xmm1,%xmm2
  402b61:	f2 0f 11 14 cb       	movsd  %xmm2,(%rbx,%rcx,8)
  402b66:	48 8d 55 03          	lea    0x3(%rbp),%rdx
  402b6a:	4c 39 e2             	cmp    %r12,%rdx
  402b6d:	0f 84 9d fe ff ff    	je     402a10 <CheckResult+0x90>
  402b73:	48 83 7c 24 38 00    	cmpq   $0x0,0x38(%rsp)
  402b79:	74 25                	je     402ba0 <CheckResult+0x220>
  402b7b:	48 01 f2             	add    %rsi,%rdx
  402b7e:	f2 41 0f 10 4c d5 00 	movsd  0x0(%r13,%rdx,8),%xmm1
  402b85:	f2 0f 59 c8          	mulsd  %xmm0,%xmm1
  402b89:	f2 0f 10 54 eb 18    	movsd  0x18(%rbx,%rbp,8),%xmm2
  402b8f:	f2 0f 5c d1          	subsd  %xmm1,%xmm2
  402b93:	f2 0f 11 54 eb 18    	movsd  %xmm2,0x18(%rbx,%rbp,8)
  402b99:	48 83 c5 04          	add    $0x4,%rbp
  402b9d:	48 89 ea             	mov    %rbp,%rdx
  402ba0:	49 39 c7             	cmp    %rax,%r15
  402ba3:	0f 84 67 fe ff ff    	je     402a10 <CheckResult+0x90>
  402ba9:	49 8d 34 f6          	lea    (%r14,%rsi,8),%rsi
  402bad:	0f 1f 00             	nopl   (%rax)
  402bb0:	f2 0f 59 44 d6 f8    	mulsd  -0x8(%rsi,%rdx,8),%xmm0
  402bb6:	f2 0f 10 0c d3       	movsd  (%rbx,%rdx,8),%xmm1
  402bbb:	f2 0f 5c c8          	subsd  %xmm0,%xmm1
  402bbf:	f2 0f 10 44 d3 08    	movsd  0x8(%rbx,%rdx,8),%xmm0
  402bc5:	f2 0f 11 0c d3       	movsd  %xmm1,(%rbx,%rdx,8)
  402bca:	f2 0f 10 0c c3       	movsd  (%rbx,%rax,8),%xmm1
  402bcf:	f2 0f 59 0c d6       	mulsd  (%rsi,%rdx,8),%xmm1
  402bd4:	f2 0f 5c c1          	subsd  %xmm1,%xmm0
  402bd8:	f2 0f 11 44 d3 08    	movsd  %xmm0,0x8(%rbx,%rdx,8)
  402bde:	48 39 54 24 10       	cmp    %rdx,0x10(%rsp)
  402be3:	0f 84 27 fe ff ff    	je     402a10 <CheckResult+0x90>
  402be9:	48 83 c2 02          	add    $0x2,%rdx
  402bed:	f2 0f 10 04 c3       	movsd  (%rbx,%rax,8),%xmm0
  402bf2:	eb bc                	jmp    402bb0 <CheckResult+0x230>
  402bf4:	49 8d 44 24 ff       	lea    -0x1(%r12),%rax
  402bf9:	49 0f af c4          	imul   %r12,%rax
  402bfd:	4c 8d 3c c5 18 00 00 	lea    0x18(,%rax,8),%r15
  402c04:	00 
  402c05:	4d 01 ef             	add    %r13,%r15
  402c08:	4c 89 e0             	mov    %r12,%rax
  402c0b:	48 c1 e0 04          	shl    $0x4,%rax
  402c0f:	48 f7 d8             	neg    %rax
  402c12:	48 89 44 24 50       	mov    %rax,0x50(%rsp)
  402c17:	4c 8b 74 24 38       	mov    0x38(%rsp),%r14
  402c1c:	4d 29 e6             	sub    %r12,%r14
  402c1f:	49 83 c6 01          	add    $0x1,%r14
  402c23:	4c 89 e0             	mov    %r12,%rax
  402c26:	48 0f af 44 24 10    	imul   0x10(%rsp),%rax
  402c2c:	4d 8d 6c c5 18       	lea    0x18(%r13,%rax,8),%r13
  402c31:	48 8b 44 24 08       	mov    0x8(%rsp),%rax
  402c36:	4c 29 e0             	sub    %r12,%rax
  402c39:	48 83 c0 02          	add    $0x2,%rax
  402c3d:	48 89 44 24 48       	mov    %rax,0x48(%rsp)
  402c42:	31 ed                	xor    %ebp,%ebp
  402c44:	4c 89 64 24 28       	mov    %r12,0x28(%rsp)
  402c49:	eb 26                	jmp    402c71 <CheckResult+0x2f1>
  402c4b:	0f 1f 44 00 00       	nopl   0x0(%rax,%rax,1)
  402c50:	48 8b 6c 24 40       	mov    0x40(%rsp),%rbp
  402c55:	48 83 c5 02          	add    $0x2,%rbp
  402c59:	48 8b 4c 24 50       	mov    0x50(%rsp),%rcx
  402c5e:	49 01 cf             	add    %rcx,%r15
  402c61:	49 83 c6 02          	add    $0x2,%r14
  402c65:	49 01 cd             	add    %rcx,%r13
  402c68:	48 83 44 24 48 02    	addq   $0x2,0x48(%rsp)
  402c6e:	49 89 c4             	mov    %rax,%r12
  402c71:	48 c7 c0 f8 ff ff ff 	mov    $0xfffffffffffffff8,%rax
  402c78:	64 48 8b 08          	mov    %fs:(%rax),%rcx
  402c7c:	64 48 8b 37          	mov    %fs:(%rdi),%rsi
  402c80:	0f 31                	rdtsc  
  402c82:	48 c1 e2 20          	shl    $0x20,%rdx
  402c86:	48 09 c2             	or     %rax,%rdx
  402c89:	48 29 ca             	sub    %rcx,%rdx
  402c8c:	48 39 f2             	cmp    %rsi,%rdx
  402c8f:	72 0e                	jb     402c9f <CheckResult+0x31f>
  402c91:	31 c0                	xor    %eax,%eax
  402c93:	e8 98 44 00 00       	callq  407130 <concord_rdtsc_func>
  402c98:	48 c7 c7 b0 ff ff ff 	mov    $0xffffffffffffffb0,%rdi
  402c9f:	49 83 fc 02          	cmp    $0x2,%r12
  402ca3:	0f 8c 70 02 00 00    	jl     402f19 <CheckResult+0x599>
  402ca9:	48 89 6c 24 40       	mov    %rbp,0x40(%rsp)
  402cae:	48 39 6c 24 10       	cmp    %rbp,0x10(%rsp)
  402cb3:	0f 85 a7 00 00 00    	jne    402d60 <CheckResult+0x3e0>
  402cb9:	31 ed                	xor    %ebp,%ebp
  402cbb:	48 83 7c 24 38 00    	cmpq   $0x0,0x38(%rsp)
  402cc1:	74 2d                	je     402cf0 <CheckResult+0x370>
  402cc3:	49 8d 44 24 ff       	lea    -0x1(%r12),%rax
  402cc8:	48 0f af 44 24 28    	imul   0x28(%rsp),%rax
  402cce:	48 01 e8             	add    %rbp,%rax
  402cd1:	48 8b 4c 24 30       	mov    0x30(%rsp),%rcx
  402cd6:	f2 0f 10 04 c1       	movsd  (%rcx,%rax,8),%xmm0
  402cdb:	f2 42 0f 59 44 e3 f8 	mulsd  -0x8(%rbx,%r12,8),%xmm0
  402ce2:	f2 0f 10 0c eb       	movsd  (%rbx,%rbp,8),%xmm1
  402ce7:	f2 0f 5c c8          	subsd  %xmm0,%xmm1
  402ceb:	f2 0f 11 0c eb       	movsd  %xmm1,(%rbx,%rbp,8)
  402cf0:	49 83 fc 02          	cmp    $0x2,%r12
  402cf4:	48 8b 44 24 40       	mov    0x40(%rsp),%rax
  402cf9:	0f 8e 1a 02 00 00    	jle    402f19 <CheckResult+0x599>
  402cff:	48 83 c8 01          	or     $0x1,%rax
  402d03:	48 39 44 24 10       	cmp    %rax,0x10(%rsp)
  402d08:	0f 85 32 01 00 00    	jne    402e40 <CheckResult+0x4c0>
  402d0e:	31 ed                	xor    %ebp,%ebp
  402d10:	49 8d 44 24 fe       	lea    -0x2(%r12),%rax
  402d15:	48 83 7c 24 08 00    	cmpq   $0x0,0x8(%rsp)
  402d1b:	0f 84 2f ff ff ff    	je     402c50 <CheckResult+0x2d0>
  402d21:	48 89 c1             	mov    %rax,%rcx
  402d24:	48 0f af 4c 24 28    	imul   0x28(%rsp),%rcx
  402d2a:	48 01 e9             	add    %rbp,%rcx
  402d2d:	48 8b 54 24 30       	mov    0x30(%rsp),%rdx
  402d32:	f2 0f 10 04 ca       	movsd  (%rdx,%rcx,8),%xmm0
  402d37:	f2 42 0f 59 44 e3 f0 	mulsd  -0x10(%rbx,%r12,8),%xmm0
  402d3e:	f2 0f 10 0c eb       	movsd  (%rbx,%rbp,8),%xmm1
  402d43:	f2 0f 5c c8          	subsd  %xmm0,%xmm1
  402d47:	f2 0f 11 0c eb       	movsd  %xmm1,(%rbx,%rbp,8)
  402d4c:	e9 ff fe ff ff       	jmpq   402c50 <CheckResult+0x2d0>
  402d51:	66 2e 0f 1f 84 00 00 	nopw   %cs:0x0(%rax,%rax,1)
  402d58:	00 00 00 
  402d5b:	0f 1f 44 00 00       	nopl   0x0(%rax,%rax,1)
  402d60:	48 c7 c5 fe ff ff ff 	mov    $0xfffffffffffffffe,%rbp
  402d67:	e9 91 00 00 00       	jmpq   402dfd <CheckResult+0x47d>
  402d6c:	0f 1f 40 00          	nopl   0x0(%rax)
  402d70:	f2 41 0f 10 44 ef f8 	movsd  -0x8(%r15,%rbp,8),%xmm0
  402d77:	f2 42 0f 59 44 e3 f8 	mulsd  -0x8(%rbx,%r12,8),%xmm0
  402d7e:	f2 0f 10 4c eb 10    	movsd  0x10(%rbx,%rbp,8),%xmm1
  402d84:	f2 0f 5c c8          	subsd  %xmm0,%xmm1
  402d88:	f2 0f 10 44 eb 18    	movsd  0x18(%rbx,%rbp,8),%xmm0
  402d8e:	f2 0f 11 4c eb 10    	movsd  %xmm1,0x10(%rbx,%rbp,8)
  402d94:	f2 41 0f 10 0c ef    	movsd  (%r15,%rbp,8),%xmm1
  402d9a:	f2 42 0f 59 4c e3 f8 	mulsd  -0x8(%rbx,%r12,8),%xmm1
  402da1:	f2 0f 5c c1          	subsd  %xmm1,%xmm0
  402da5:	f2 0f 11 44 eb 18    	movsd  %xmm0,0x18(%rbx,%rbp,8)
  402dab:	f2 41 0f 10 44 ef 08 	movsd  0x8(%r15,%rbp,8),%xmm0
  402db2:	f2 42 0f 59 44 e3 f8 	mulsd  -0x8(%rbx,%r12,8),%xmm0
  402db9:	f2 0f 10 4c eb 20    	movsd  0x20(%rbx,%rbp,8),%xmm1
  402dbf:	f2 0f 5c c8          	subsd  %xmm0,%xmm1
  402dc3:	f2 0f 11 4c eb 20    	movsd  %xmm1,0x20(%rbx,%rbp,8)
  402dc9:	f2 41 0f 10 44 ef 10 	movsd  0x10(%r15,%rbp,8),%xmm0
  402dd0:	f2 42 0f 59 44 e3 f8 	mulsd  -0x8(%rbx,%r12,8),%xmm0
  402dd7:	f2 0f 10 4c eb 28    	movsd  0x28(%rbx,%rbp,8),%xmm1
  402ddd:	f2 0f 5c c8          	subsd  %xmm0,%xmm1
  402de1:	f2 0f 11 4c eb 28    	movsd  %xmm1,0x28(%rbx,%rbp,8)
  402de7:	49 8d 04 2e          	lea    (%r14,%rbp,1),%rax
  402deb:	48 83 c0 04          	add    $0x4,%rax
  402def:	48 83 c5 04          	add    $0x4,%rbp
  402df3:	48 83 f8 fe          	cmp    $0xfffffffffffffffe,%rax
  402df7:	0f 84 be fe ff ff    	je     402cbb <CheckResult+0x33b>
  402dfd:	48 c7 c0 f8 ff ff ff 	mov    $0xfffffffffffffff8,%rax
  402e04:	64 48 8b 08          	mov    %fs:(%rax),%rcx
  402e08:	64 48 8b 37          	mov    %fs:(%rdi),%rsi
  402e0c:	0f 31                	rdtsc  
  402e0e:	48 c1 e2 20          	shl    $0x20,%rdx
  402e12:	48 09 c2             	or     %rax,%rdx
  402e15:	48 29 ca             	sub    %rcx,%rdx
  402e18:	48 39 f2             	cmp    %rsi,%rdx
  402e1b:	0f 82 4f ff ff ff    	jb     402d70 <CheckResult+0x3f0>
  402e21:	31 c0                	xor    %eax,%eax
  402e23:	e8 08 43 00 00       	callq  407130 <concord_rdtsc_func>
  402e28:	48 c7 c7 b0 ff ff ff 	mov    $0xffffffffffffffb0,%rdi
  402e2f:	e9 3c ff ff ff       	jmpq   402d70 <CheckResult+0x3f0>
  402e34:	66 2e 0f 1f 84 00 00 	nopw   %cs:0x0(%rax,%rax,1)
  402e3b:	00 00 00 
  402e3e:	66 90                	xchg   %ax,%ax
  402e40:	48 c7 c5 fe ff ff ff 	mov    $0xfffffffffffffffe,%rbp
  402e47:	e9 96 00 00 00       	jmpq   402ee2 <CheckResult+0x562>
  402e4c:	0f 1f 40 00          	nopl   0x0(%rax)
  402e50:	f2 41 0f 10 44 ed f8 	movsd  -0x8(%r13,%rbp,8),%xmm0
  402e57:	f2 42 0f 59 44 e3 f0 	mulsd  -0x10(%rbx,%r12,8),%xmm0
  402e5e:	f2 0f 10 4c eb 10    	movsd  0x10(%rbx,%rbp,8),%xmm1
  402e64:	f2 0f 5c c8          	subsd  %xmm0,%xmm1
  402e68:	f2 0f 10 44 eb 18    	movsd  0x18(%rbx,%rbp,8),%xmm0
  402e6e:	f2 0f 11 4c eb 10    	movsd  %xmm1,0x10(%rbx,%rbp,8)
  402e74:	f2 41 0f 10 4c ed 00 	movsd  0x0(%r13,%rbp,8),%xmm1
  402e7b:	f2 42 0f 59 4c e3 f0 	mulsd  -0x10(%rbx,%r12,8),%xmm1
  402e82:	f2 0f 5c c1          	subsd  %xmm1,%xmm0
  402e86:	f2 0f 11 44 eb 18    	movsd  %xmm0,0x18(%rbx,%rbp,8)
  402e8c:	f2 41 0f 10 44 ed 08 	movsd  0x8(%r13,%rbp,8),%xmm0
  402e93:	f2 42 0f 59 44 e3 f0 	mulsd  -0x10(%rbx,%r12,8),%xmm0
  402e9a:	f2 0f 10 4c eb 20    	movsd  0x20(%rbx,%rbp,8),%xmm1
  402ea0:	f2 0f 5c c8          	subsd  %xmm0,%xmm1
  402ea4:	f2 0f 11 4c eb 20    	movsd  %xmm1,0x20(%rbx,%rbp,8)
  402eaa:	f2 41 0f 10 44 ed 10 	movsd  0x10(%r13,%rbp,8),%xmm0
  402eb1:	f2 42 0f 59 44 e3 f0 	mulsd  -0x10(%rbx,%r12,8),%xmm0
  402eb8:	f2 0f 10 4c eb 28    	movsd  0x28(%rbx,%rbp,8),%xmm1
  402ebe:	f2 0f 5c c8          	subsd  %xmm0,%xmm1
  402ec2:	f2 0f 11 4c eb 28    	movsd  %xmm1,0x28(%rbx,%rbp,8)
  402ec8:	48 8b 44 24 48       	mov    0x48(%rsp),%rax
  402ecd:	48 01 e8             	add    %rbp,%rax
  402ed0:	48 83 c0 04          	add    $0x4,%rax
  402ed4:	48 83 c5 04          	add    $0x4,%rbp
  402ed8:	48 83 f8 fe          	cmp    $0xfffffffffffffffe,%rax
  402edc:	0f 84 2e fe ff ff    	je     402d10 <CheckResult+0x390>
  402ee2:	48 c7 c0 f8 ff ff ff 	mov    $0xfffffffffffffff8,%rax
  402ee9:	64 48 8b 08          	mov    %fs:(%rax),%rcx
  402eed:	64 48 8b 37          	mov    %fs:(%rdi),%rsi
  402ef1:	0f 31                	rdtsc  
  402ef3:	48 c1 e2 20          	shl    $0x20,%rdx
  402ef7:	48 09 c2             	or     %rax,%rdx
  402efa:	48 29 ca             	sub    %rcx,%rdx
  402efd:	48 39 f2             	cmp    %rsi,%rdx
  402f00:	0f 82 4a ff ff ff    	jb     402e50 <CheckResult+0x4d0>
  402f06:	31 c0                	xor    %eax,%eax
  402f08:	e8 23 42 00 00       	callq  407130 <concord_rdtsc_func>
  402f0d:	48 c7 c7 b0 ff ff ff 	mov    $0xffffffffffffffb0,%rdi
  402f14:	e9 37 ff ff ff       	jmpq   402e50 <CheckResult+0x4d0>
  402f19:	4c 8b 64 24 28       	mov    0x28(%rsp),%r12
  402f1e:	49 83 fc 01          	cmp    $0x1,%r12
  402f22:	75 0f                	jne    402f33 <CheckResult+0x5b3>
  402f24:	66 45 0f 57 d2       	xorpd  %xmm10,%xmm10
  402f29:	31 ed                	xor    %ebp,%ebp
  402f2b:	45 31 f6             	xor    %r14d,%r14d
  402f2e:	e9 62 01 00 00       	jmpq   403095 <CheckResult+0x715>
  402f33:	4c 2b 64 24 08       	sub    0x8(%rsp),%r12
  402f38:	66 45 0f 57 db       	xorpd  %xmm11,%xmm11
  402f3d:	f2 44 0f 10 05 32 45 	movsd  0x4532(%rip),%xmm8        # 407478 <_IO_stdin_used+0x18>
  402f44:	00 00 
  402f46:	66 44 0f 28 0d f1 45 	movapd 0x45f1(%rip),%xmm9        # 407540 <_IO_stdin_used+0xe0>
  402f4d:	00 00 
  402f4f:	f2 0f 10 0d 29 45 00 	movsd  0x4529(%rip),%xmm1        # 407480 <_IO_stdin_used+0x20>
  402f56:	00 
  402f57:	41 bf 01 00 00 00    	mov    $0x1,%r15d
  402f5d:	45 31 f6             	xor    %r14d,%r14d
  402f60:	31 ed                	xor    %ebp,%ebp
  402f62:	eb 2e                	jmp    402f92 <CheckResult+0x612>
  402f64:	66 2e 0f 1f 84 00 00 	nopw   %cs:0x0(%rax,%rax,1)
  402f6b:	00 00 00 
  402f6e:	66 90                	xchg   %ax,%ax
  402f70:	66 0f 2e d1          	ucomisd %xmm1,%xmm2
  402f74:	49 0f 47 ef          	cmova  %r15,%rbp
  402f78:	66 0f 2e c1          	ucomisd %xmm1,%xmm0
  402f7c:	49 0f 47 ef          	cmova  %r15,%rbp
  402f80:	49 83 c6 04          	add    $0x4,%r14
  402f84:	66 45 0f 28 da       	movapd %xmm10,%xmm11
  402f89:	4d 39 f4             	cmp    %r14,%r12
  402f8c:	0f 84 fb 00 00 00    	je     40308d <CheckResult+0x70d>
  402f92:	48 c7 c0 f8 ff ff ff 	mov    $0xfffffffffffffff8,%rax
  402f99:	64 48 8b 08          	mov    %fs:(%rax),%rcx
  402f9d:	64 48 8b 37          	mov    %fs:(%rdi),%rsi
  402fa1:	0f 31                	rdtsc  
  402fa3:	48 c1 e2 20          	shl    $0x20,%rdx
  402fa7:	48 09 c2             	or     %rax,%rdx
  402faa:	48 29 ca             	sub    %rcx,%rdx
  402fad:	48 39 f2             	cmp    %rsi,%rdx
  402fb0:	72 36                	jb     402fe8 <CheckResult+0x668>
  402fb2:	31 c0                	xor    %eax,%eax
  402fb4:	66 44 0f 29 5c 24 10 	movapd %xmm11,0x10(%rsp)
  402fbb:	e8 70 41 00 00       	callq  407130 <concord_rdtsc_func>
  402fc0:	66 44 0f 28 5c 24 10 	movapd 0x10(%rsp),%xmm11
  402fc7:	f2 0f 10 0d b1 44 00 	movsd  0x44b1(%rip),%xmm1        # 407480 <_IO_stdin_used+0x20>
  402fce:	00 
  402fcf:	66 44 0f 28 0d 68 45 	movapd 0x4568(%rip),%xmm9        # 407540 <_IO_stdin_used+0xe0>
  402fd6:	00 00 
  402fd8:	f2 44 0f 10 05 97 44 	movsd  0x4497(%rip),%xmm8        # 407478 <_IO_stdin_used+0x18>
  402fdf:	00 00 
  402fe1:	48 c7 c7 b0 ff ff ff 	mov    $0xffffffffffffffb0,%rdi
  402fe8:	f2 42 0f 10 24 f3    	movsd  (%rbx,%r14,8),%xmm4
  402fee:	f2 41 0f 58 e0       	addsd  %xmm8,%xmm4
  402ff3:	66 0f 28 c4          	movapd %xmm4,%xmm0
  402ff7:	66 41 0f 54 c1       	andpd  %xmm9,%xmm0
  402ffc:	f2 42 0f 10 5c f3 08 	movsd  0x8(%rbx,%r14,8),%xmm3
  403003:	f2 41 0f 58 d8       	addsd  %xmm8,%xmm3
  403008:	66 0f 28 d3          	movapd %xmm3,%xmm2
  40300c:	66 41 0f 54 d1       	andpd  %xmm9,%xmm2
  403011:	f2 46 0f 10 54 f3 18 	movsd  0x18(%rbx,%r14,8),%xmm10
  403018:	f2 45 0f 58 d0       	addsd  %xmm8,%xmm10
  40301d:	66 41 0f 28 ea       	movapd %xmm10,%xmm5
  403022:	66 41 0f 54 e9       	andpd  %xmm9,%xmm5
  403027:	66 0f 2e e9          	ucomisd %xmm1,%xmm5
  40302b:	f2 42 0f 10 74 f3 10 	movsd  0x10(%rbx,%r14,8),%xmm6
  403032:	49 0f 47 ef          	cmova  %r15,%rbp
  403036:	f2 41 0f 58 f0       	addsd  %xmm8,%xmm6
  40303b:	66 0f 28 fe          	movapd %xmm6,%xmm7
  40303f:	66 41 0f 54 f9       	andpd  %xmm9,%xmm7
  403044:	66 0f 2e f9          	ucomisd %xmm1,%xmm7
  403048:	77 2b                	ja     403075 <CheckResult+0x6f5>
  40304a:	66 0f 28 f9          	movapd %xmm1,%xmm7
  40304e:	f2 0f c2 f8 01       	cmpltsd %xmm0,%xmm7
  403053:	66 0f 54 e7          	andpd  %xmm7,%xmm4
  403057:	66 41 0f 55 fb       	andnpd %xmm11,%xmm7
  40305c:	66 0f 56 fc          	orpd   %xmm4,%xmm7
  403060:	66 0f 28 f1          	movapd %xmm1,%xmm6
  403064:	f2 0f c2 f2 01       	cmpltsd %xmm2,%xmm6
  403069:	66 0f 54 de          	andpd  %xmm6,%xmm3
  40306d:	66 0f 55 f7          	andnpd %xmm7,%xmm6
  403071:	66 0f 56 f3          	orpd   %xmm3,%xmm6
  403075:	49 0f 47 ef          	cmova  %r15,%rbp
  403079:	66 0f 2e e9          	ucomisd %xmm1,%xmm5
  40307d:	0f 87 ed fe ff ff    	ja     402f70 <CheckResult+0x5f0>
  403083:	66 44 0f 28 d6       	movapd %xmm6,%xmm10
  403088:	e9 e3 fe ff ff       	jmpq   402f70 <CheckResult+0x5f0>
  40308d:	48 83 7c 24 08 00    	cmpq   $0x0,0x8(%rsp)
  403093:	74 24                	je     4030b9 <CheckResult+0x739>
  403095:	f2 42 0f 10 04 f3    	movsd  (%rbx,%r14,8),%xmm0
  40309b:	f2 0f 58 05 d5 43 00 	addsd  0x43d5(%rip),%xmm0        # 407478 <_IO_stdin_used+0x18>
  4030a2:	00 
  4030a3:	66 0f 28 15 95 44 00 	movapd 0x4495(%rip),%xmm2        # 407540 <_IO_stdin_used+0xe0>
  4030aa:	00 
  4030ab:	66 0f 54 d0          	andpd  %xmm0,%xmm2
  4030af:	66 0f 2e 15 c9 43 00 	ucomisd 0x43c9(%rip),%xmm2        # 407480 <_IO_stdin_used+0x20>
  4030b6:	00 
  4030b7:	77 0a                	ja     4030c3 <CheckResult+0x743>
  4030b9:	66 41 0f 28 c2       	movapd %xmm10,%xmm0
  4030be:	48 85 ed             	test   %rbp,%rbp
  4030c1:	74 0e                	je     4030d1 <CheckResult+0x751>
  4030c3:	bf 69 7d 40 00       	mov    $0x407d69,%edi
  4030c8:	b0 01                	mov    $0x1,%al
  4030ca:	e8 41 de ff ff       	callq  400f10 <printf@plt>
  4030cf:	eb 0a                	jmp    4030db <CheckResult+0x75b>
  4030d1:	bf 83 7d 40 00       	mov    $0x407d83,%edi
  4030d6:	e8 d5 dd ff ff       	callq  400eb0 <puts@plt>
  4030db:	48 89 df             	mov    %rbx,%rdi
  4030de:	48 83 c4 58          	add    $0x58,%rsp
  4030e2:	5b                   	pop    %rbx
  4030e3:	41 5c                	pop    %r12
  4030e5:	41 5d                	pop    %r13
  4030e7:	41 5e                	pop    %r14
  4030e9:	41 5f                	pop    %r15
  4030eb:	5d                   	pop    %rbp
  4030ec:	e9 6f dd ff ff       	jmpq   400e60 <free@plt>
  4030f1:	bf 4a 7d 40 00       	mov    $0x407d4a,%edi
  4030f6:	e8 f5 f2 ff ff       	callq  4023f0 <printerr>
  4030fb:	bf ff ff ff ff       	mov    $0xffffffff,%edi
  403100:	e8 1b df ff ff       	callq  401020 <exit@plt>
  403105:	66 2e 0f 1f 84 00 00 	nopw   %cs:0x0(%rax,%rax,1)
  40310c:	00 00 00 
  40310f:	90                   	nop

0000000000403110 <lu>:
  403110:	55                   	push   %rbp
  403111:	41 57                	push   %r15
  403113:	41 56                	push   %r14
  403115:	41 55                	push   %r13
  403117:	41 54                	push   %r12
  403119:	53                   	push   %rbx
  40311a:	48 81 ec c8 02 00 00 	sub    $0x2c8,%rsp
  403121:	48 89 8c 24 40 02 00 	mov    %rcx,0x240(%rsp)
  403128:	00 
  403129:	48 89 94 24 10 01 00 	mov    %rdx,0x110(%rsp)
  403130:	00 
  403131:	48 85 ff             	test   %rdi,%rdi
  403134:	0f 8e de 22 00 00    	jle    405418 <lu+0x2308>
  40313a:	48 89 f5             	mov    %rsi,%rbp
  40313d:	49 89 ff             	mov    %rdi,%r15
  403140:	48 83 bc 24 10 01 00 	cmpq   $0x0,0x110(%rsp)
  403147:	00 00 
  403149:	0f 94 c0             	sete   %al
  40314c:	4d 85 c0             	test   %r8,%r8
  40314f:	41 0f 95 c4          	setne  %r12b
  403153:	41 08 c4             	or     %al,%r12b
  403156:	48 8d 47 01          	lea    0x1(%rdi),%rax
  40315a:	48 89 f1             	mov    %rsi,%rcx
  40315d:	48 89 84 24 88 02 00 	mov    %rax,0x288(%rsp)
  403164:	00 
  403165:	48 0f af c8          	imul   %rax,%rcx
  403169:	48 89 8c 24 80 02 00 	mov    %rcx,0x280(%rsp)
  403170:	00 
  403171:	48 8d 04 cd 00 00 00 	lea    0x0(,%rcx,8),%rax
  403178:	00 
  403179:	48 89 84 24 78 02 00 	mov    %rax,0x278(%rsp)
  403180:	00 
  403181:	48 8d 04 fd 00 00 00 	lea    0x0(,%rdi,8),%rax
  403188:	00 
  403189:	48 89 84 24 b0 00 00 	mov    %rax,0xb0(%rsp)
  403190:	00 
  403191:	48 89 f8             	mov    %rdi,%rax
  403194:	48 c1 e0 05          	shl    $0x5,%rax
  403198:	48 89 84 24 b8 02 00 	mov    %rax,0x2b8(%rsp)
  40319f:	00 
  4031a0:	48 8d 04 fd 08 00 00 	lea    0x8(,%rdi,8),%rax
  4031a7:	00 
  4031a8:	49 89 fd             	mov    %rdi,%r13
  4031ab:	49 c1 e5 04          	shl    $0x4,%r13
  4031af:	48 8d 0c 3f          	lea    (%rdi,%rdi,1),%rcx
  4031b3:	48 89 8c 24 f0 01 00 	mov    %rcx,0x1f0(%rsp)
  4031ba:	00 
  4031bb:	49 8d 4d 08          	lea    0x8(%r13),%rcx
  4031bf:	48 89 8c 24 e8 01 00 	mov    %rcx,0x1e8(%rsp)
  4031c6:	00 
  4031c7:	48 8d 4c 3f fe       	lea    -0x2(%rdi,%rdi,1),%rcx
  4031cc:	48 89 8c 24 e0 01 00 	mov    %rcx,0x1e0(%rsp)
  4031d3:	00 
  4031d4:	48 8d 4f fe          	lea    -0x2(%rdi),%rcx
  4031d8:	48 89 f2             	mov    %rsi,%rdx
  4031db:	48 0f af d7          	imul   %rdi,%rdx
  4031df:	48 89 f7             	mov    %rsi,%rdi
  4031e2:	48 c1 e7 04          	shl    $0x4,%rdi
  4031e6:	48 01 f6             	add    %rsi,%rsi
  4031e9:	48 89 b4 24 18 02 00 	mov    %rsi,0x218(%rsp)
  4031f0:	00 
  4031f1:	48 89 94 24 70 02 00 	mov    %rdx,0x270(%rsp)
  4031f8:	00 
  4031f9:	48 8d 14 d5 00 00 00 	lea    0x0(,%rdx,8),%rdx
  403200:	00 
  403201:	48 89 94 24 28 02 00 	mov    %rdx,0x228(%rsp)
  403208:	00 
  403209:	48 8d 14 ed 00 00 00 	lea    0x0(,%rbp,8),%rdx
  403210:	00 
  403211:	48 89 94 24 b0 02 00 	mov    %rdx,0x2b0(%rsp)
  403218:	00 
  403219:	49 8d 57 03          	lea    0x3(%r15),%rdx
  40321d:	48 89 94 24 38 02 00 	mov    %rdx,0x238(%rsp)
  403224:	00 
  403225:	b3 01                	mov    $0x1,%bl
  403227:	48 89 ac 24 d8 01 00 	mov    %rbp,0x1d8(%rsp)
  40322e:	00 
  40322f:	ba 00 00 00 00       	mov    $0x0,%edx
  403234:	48 89 94 24 10 02 00 	mov    %rdx,0x210(%rsp)
  40323b:	00 
  40323c:	48 89 8c 24 30 02 00 	mov    %rcx,0x230(%rsp)
  403243:	00 
  403244:	48 89 8c 24 d0 01 00 	mov    %rcx,0x1d0(%rsp)
  40324b:	00 
  40324c:	48 89 84 24 20 02 00 	mov    %rax,0x220(%rsp)
  403253:	00 
  403254:	48 89 84 24 c8 01 00 	mov    %rax,0x1c8(%rsp)
  40325b:	00 
  40325c:	b8 00 00 00 00       	mov    $0x0,%eax
  403261:	48 89 84 24 08 02 00 	mov    %rax,0x208(%rsp)
  403268:	00 
  403269:	b8 00 00 00 00       	mov    $0x0,%eax
  40326e:	48 89 84 24 a8 01 00 	mov    %rax,0x1a8(%rsp)
  403275:	00 
  403276:	4c 89 bc 24 c0 01 00 	mov    %r15,0x1c0(%rsp)
  40327d:	00 
  40327e:	48 89 ea             	mov    %rbp,%rdx
  403281:	b8 00 00 00 00       	mov    $0x0,%eax
  403286:	48 89 84 24 40 01 00 	mov    %rax,0x140(%rsp)
  40328d:	00 
  40328e:	31 c0                	xor    %eax,%eax
  403290:	48 89 44 24 20       	mov    %rax,0x20(%rsp)
  403295:	31 c9                	xor    %ecx,%ecx
  403297:	48 89 ac 24 18 01 00 	mov    %rbp,0x118(%rsp)
  40329e:	00 
  40329f:	4c 89 7c 24 08       	mov    %r15,0x8(%rsp)
  4032a4:	44 88 64 24 07       	mov    %r12b,0x7(%rsp)
  4032a9:	4c 89 ac 24 e8 00 00 	mov    %r13,0xe8(%rsp)
  4032b0:	00 
  4032b1:	48 89 bc 24 a8 02 00 	mov    %rdi,0x2a8(%rsp)
  4032b8:	00 
  4032b9:	e9 a9 00 00 00       	jmpq   403367 <lu+0x257>
  4032be:	66 90                	xchg   %ax,%ax
  4032c0:	48 8b 8c 24 78 02 00 	mov    0x278(%rsp),%rcx
  4032c7:	00 
  4032c8:	48 01 8c 24 40 01 00 	add    %rcx,0x140(%rsp)
  4032cf:	00 
  4032d0:	48 8b 94 24 90 02 00 	mov    0x290(%rsp),%rdx
  4032d7:	00 
  4032d8:	48 01 ea             	add    %rbp,%rdx
  4032db:	48 8b 84 24 80 02 00 	mov    0x280(%rsp),%rax
  4032e2:	00 
  4032e3:	48 01 84 24 c0 01 00 	add    %rax,0x1c0(%rsp)
  4032ea:	00 
  4032eb:	48 01 84 24 a8 01 00 	add    %rax,0x1a8(%rsp)
  4032f2:	00 
  4032f3:	48 29 ac 24 08 02 00 	sub    %rbp,0x208(%rsp)
  4032fa:	00 
  4032fb:	48 8b 9c 24 98 02 00 	mov    0x298(%rsp),%rbx
  403302:	00 
  403303:	40 00 eb             	add    %bpl,%bl
  403306:	48 01 84 24 f0 01 00 	add    %rax,0x1f0(%rsp)
  40330d:	00 
  40330e:	48 01 8c 24 e8 01 00 	add    %rcx,0x1e8(%rsp)
  403315:	00 
  403316:	48 29 ac 24 e0 01 00 	sub    %rbp,0x1e0(%rsp)
  40331d:	00 
  40331e:	48 01 8c 24 c8 01 00 	add    %rcx,0x1c8(%rsp)
  403325:	00 
  403326:	48 29 ac 24 d0 01 00 	sub    %rbp,0x1d0(%rsp)
  40332d:	00 
  40332e:	48 8b 84 24 70 02 00 	mov    0x270(%rsp),%rax
  403335:	00 
  403336:	48 01 84 24 10 02 00 	add    %rax,0x210(%rsp)
  40333d:	00 
  40333e:	48 01 84 24 d8 01 00 	add    %rax,0x1d8(%rsp)
  403345:	00 
  403346:	48 8b 84 24 b8 01 00 	mov    0x1b8(%rsp),%rax
  40334d:	00 
  40334e:	48 89 c1             	mov    %rax,%rcx
  403351:	48 89 44 24 20       	mov    %rax,0x20(%rsp)
  403356:	48 8b 8c 24 08 01 00 	mov    0x108(%rsp),%rcx
  40335d:	00 
  40335e:	4c 39 f8             	cmp    %r15,%rax
  403361:	0f 8d b1 20 00 00    	jge    405418 <lu+0x2308>
  403367:	49 39 d7             	cmp    %rdx,%r15
  40336a:	48 89 94 24 90 02 00 	mov    %rdx,0x290(%rsp)
  403371:	00 
  403372:	49 0f 4e d7          	cmovle %r15,%rdx
  403376:	48 89 54 24 40       	mov    %rdx,0x40(%rsp)
  40337b:	48 89 c8             	mov    %rcx,%rax
  40337e:	48 89 8c 24 f0 00 00 	mov    %rcx,0xf0(%rsp)
  403385:	00 
  403386:	48 0f af cd          	imul   %rbp,%rcx
  40338a:	48 89 4c 24 58       	mov    %rcx,0x58(%rsp)
  40338f:	48 8d 04 29          	lea    (%rcx,%rbp,1),%rax
  403393:	4c 39 f8             	cmp    %r15,%rax
  403396:	49 89 c6             	mov    %rax,%r14
  403399:	49 0f 4f c7          	cmovg  %r15,%rax
  40339d:	48 89 84 24 d0 00 00 	mov    %rax,0xd0(%rsp)
  4033a4:	00 
  4033a5:	48 c7 c0 f8 ff ff ff 	mov    $0xfffffffffffffff8,%rax
  4033ac:	64 48 8b 08          	mov    %fs:(%rax),%rcx
  4033b0:	48 c7 c0 b0 ff ff ff 	mov    $0xffffffffffffffb0,%rax
  4033b7:	64 48 8b 30          	mov    %fs:(%rax),%rsi
  4033bb:	0f 31                	rdtsc  
  4033bd:	48 c1 e2 20          	shl    $0x20,%rdx
  4033c1:	48 09 c2             	or     %rax,%rdx
  4033c4:	48 29 ca             	sub    %rcx,%rdx
  4033c7:	48 39 f2             	cmp    %rsi,%rdx
  4033ca:	72 07                	jb     4033d3 <lu+0x2c3>
  4033cc:	31 c0                	xor    %eax,%eax
  4033ce:	e8 5d 3d 00 00       	callq  407130 <concord_rdtsc_func>
  4033d3:	4d 39 fe             	cmp    %r15,%r14
  4033d6:	4d 0f 4f f7          	cmovg  %r15,%r14
  4033da:	48 8b 4c 24 58       	mov    0x58(%rsp),%rcx
  4033df:	48 89 c8             	mov    %rcx,%rax
  4033e2:	48 f7 d0             	not    %rax
  4033e5:	48 89 84 24 f8 00 00 	mov    %rax,0xf8(%rsp)
  4033ec:	00 
  4033ed:	4c 89 f0             	mov    %r14,%rax
  4033f0:	4c 89 b4 24 98 00 00 	mov    %r14,0x98(%rsp)
  4033f7:	00 
  4033f8:	49 29 ce             	sub    %rcx,%r14
  4033fb:	4c 89 b4 24 20 01 00 	mov    %r14,0x120(%rsp)
  403402:	00 
  403403:	48 8b 44 24 20       	mov    0x20(%rsp),%rax
  403408:	48 01 e8             	add    %rbp,%rax
  40340b:	4c 39 f8             	cmp    %r15,%rax
  40340e:	48 89 84 24 b8 01 00 	mov    %rax,0x1b8(%rsp)
  403415:	00 
  403416:	49 0f 4f c7          	cmovg  %r15,%rax
  40341a:	48 89 84 24 00 01 00 	mov    %rax,0x100(%rsp)
  403421:	00 
  403422:	45 84 e4             	test   %r12b,%r12b
  403425:	74 2b                	je     403452 <lu+0x342>
  403427:	48 8d bc 24 88 00 00 	lea    0x88(%rsp),%rdi
  40342e:	00 
  40342f:	31 f6                	xor    %esi,%esi
  403431:	e8 fa da ff ff       	callq  400f30 <gettimeofday@plt>
  403436:	48 69 84 24 88 00 00 	imul   $0xf4240,0x88(%rsp),%rax
  40343d:	00 40 42 0f 00 
  403442:	48 03 84 24 90 00 00 	add    0x90(%rsp),%rax
  403449:	00 
  40344a:	48 89 84 24 48 02 00 	mov    %rax,0x248(%rsp)
  403451:	00 
  403452:	48 8b 84 24 08 02 00 	mov    0x208(%rsp),%rax
  403459:	00 
  40345a:	48 8b 4c 24 40       	mov    0x40(%rsp),%rcx
  40345f:	48 01 c8             	add    %rcx,%rax
  403462:	48 89 84 24 50 01 00 	mov    %rax,0x150(%rsp)
  403469:	00 
  40346a:	48 89 9c 24 98 02 00 	mov    %rbx,0x298(%rsp)
  403471:	00 
  403472:	8d 04 0b             	lea    (%rbx,%rcx,1),%eax
  403475:	89 84 24 48 01 00 00 	mov    %eax,0x148(%rsp)
  40347c:	48 8b 44 24 58       	mov    0x58(%rsp),%rax
  403481:	48 83 f0 01          	xor    $0x1,%rax
  403485:	48 89 44 24 48       	mov    %rax,0x48(%rsp)
  40348a:	48 8b 84 24 f8 00 00 	mov    0xf8(%rsp),%rax
  403491:	00 
  403492:	48 03 84 24 98 00 00 	add    0x98(%rsp),%rax
  403499:	00 
  40349a:	48 89 84 24 f8 00 00 	mov    %rax,0xf8(%rsp)
  4034a1:	00 
  4034a2:	48 83 84 24 20 01 00 	addq   $0xfffffffffffffffe,0x120(%rsp)
  4034a9:	00 fe 
  4034ab:	48 8b 84 24 f0 00 00 	mov    0xf0(%rsp),%rax
  4034b2:	00 
  4034b3:	48 01 c0             	add    %rax,%rax
  4034b6:	48 99                	cqto   
  4034b8:	48 f7 3d 79 5c 20 00 	idivq  0x205c79(%rip)        # 609138 <P>
  4034bf:	48 3b 94 24 10 01 00 	cmp    0x110(%rsp),%rdx
  4034c6:	00 
  4034c7:	0f 85 f3 05 00 00    	jne    403ac0 <lu+0x9b0>
  4034cd:	48 8b 84 24 00 01 00 	mov    0x100(%rsp),%rax
  4034d4:	00 
  4034d5:	48 2b 44 24 20       	sub    0x20(%rsp),%rax
  4034da:	48 89 44 24 38       	mov    %rax,0x38(%rsp)
  4034df:	0f 8e db 05 00 00    	jle    403ac0 <lu+0x9b0>
  4034e5:	48 8b 84 24 e0 01 00 	mov    0x1e0(%rsp),%rax
  4034ec:	00 
  4034ed:	48 8b 54 24 40       	mov    0x40(%rsp),%rdx
  4034f2:	48 01 d0             	add    %rdx,%rax
  4034f5:	48 8b 8c 24 d0 01 00 	mov    0x1d0(%rsp),%rcx
  4034fc:	00 
  4034fd:	48 8d 0c 0a          	lea    (%rdx,%rcx,1),%rcx
  403501:	48 8b 94 24 40 01 00 	mov    0x140(%rsp),%rdx
  403508:	00 
  403509:	48 8d 04 c2          	lea    (%rdx,%rax,8),%rax
  40350d:	48 89 84 24 b8 00 00 	mov    %rax,0xb8(%rsp)
  403514:	00 
  403515:	48 8d 04 ca          	lea    (%rdx,%rcx,8),%rax
  403519:	48 89 84 24 80 00 00 	mov    %rax,0x80(%rsp)
  403520:	00 
  403521:	48 8b 84 24 98 00 00 	mov    0x98(%rsp),%rax
  403528:	00 
  403529:	48 8b 4c 24 48       	mov    0x48(%rsp),%rcx
  40352e:	48 8d 04 08          	lea    (%rax,%rcx,1),%rax
  403532:	48 89 84 24 a0 00 00 	mov    %rax,0xa0(%rsp)
  403539:	00 
  40353a:	48 8b 35 a7 5e 20 00 	mov    0x205ea7(%rip),%rsi        # 6093e8 <a>
  403541:	48 8b 4c 24 20       	mov    0x20(%rsp),%rcx
  403546:	48 89 c8             	mov    %rcx,%rax
  403549:	48 0f af 44 24 08    	imul   0x8(%rsp),%rax
  40354f:	48 01 c8             	add    %rcx,%rax
  403552:	48 8d 3c c6          	lea    (%rsi,%rax,8),%rdi
  403556:	48 8b 84 24 c0 01 00 	mov    0x1c0(%rsp),%rax
  40355d:	00 
  40355e:	48 8d 04 c6          	lea    (%rsi,%rax,8),%rax
  403562:	48 89 44 24 78       	mov    %rax,0x78(%rsp)
  403567:	48 8b 84 24 a8 01 00 	mov    0x1a8(%rsp),%rax
  40356e:	00 
  40356f:	4c 8d 2c c6          	lea    (%rsi,%rax,8),%r13
  403573:	48 8b 84 24 f0 01 00 	mov    0x1f0(%rsp),%rax
  40357a:	00 
  40357b:	48 89 b4 24 e0 00 00 	mov    %rsi,0xe0(%rsp)
  403582:	00 
  403583:	48 8d 04 c6          	lea    (%rsi,%rax,8),%rax
  403587:	48 89 84 24 a8 00 00 	mov    %rax,0xa8(%rsp)
  40358e:	00 
  40358f:	48 8b 84 24 c8 01 00 	mov    0x1c8(%rsp),%rax
  403596:	00 
  403597:	48 89 84 24 d8 00 00 	mov    %rax,0xd8(%rsp)
  40359e:	00 
  40359f:	48 8b 84 24 e8 01 00 	mov    0x1e8(%rsp),%rax
  4035a6:	00 
  4035a7:	48 89 44 24 70       	mov    %rax,0x70(%rsp)
  4035ac:	8b 84 24 48 01 00 00 	mov    0x148(%rsp),%eax
  4035b3:	88 44 24 68          	mov    %al,0x68(%rsp)
  4035b7:	48 8b 84 24 50 01 00 	mov    0x150(%rsp),%rax
  4035be:	00 
  4035bf:	48 89 44 24 50       	mov    %rax,0x50(%rsp)
  4035c4:	48 89 54 24 60       	mov    %rdx,0x60(%rsp)
  4035c9:	31 c0                	xor    %eax,%eax
  4035cb:	48 89 7c 24 18       	mov    %rdi,0x18(%rsp)
  4035d0:	eb 6c                	jmp    40363e <lu+0x52e>
  4035d2:	66 2e 0f 1f 84 00 00 	nopw   %cs:0x0(%rax,%rax,1)
  4035d9:	00 00 00 
  4035dc:	0f 1f 40 00          	nopl   0x0(%rax)
  4035e0:	48 83 44 24 60 08    	addq   $0x8,0x60(%rsp)
  4035e6:	48 8b 8c 24 20 02 00 	mov    0x220(%rsp),%rcx
  4035ed:	00 
  4035ee:	48 01 4c 24 78       	add    %rcx,0x78(%rsp)
  4035f3:	49 01 cd             	add    %rcx,%r13
  4035f6:	48 83 44 24 50 ff    	addq   $0xffffffffffffffff,0x50(%rsp)
  4035fc:	80 44 24 68 01       	addb   $0x1,0x68(%rsp)
  403601:	48 01 8c 24 a8 00 00 	add    %rcx,0xa8(%rsp)
  403608:	00 
  403609:	48 01 4c 24 70       	add    %rcx,0x70(%rsp)
  40360e:	48 8b 84 24 b0 00 00 	mov    0xb0(%rsp),%rax
  403615:	00 
  403616:	48 01 84 24 b8 00 00 	add    %rax,0xb8(%rsp)
  40361d:	00 
  40361e:	48 01 8c 24 d8 00 00 	add    %rcx,0xd8(%rsp)
  403625:	00 
  403626:	48 01 84 24 80 00 00 	add    %rax,0x80(%rsp)
  40362d:	00 
  40362e:	48 8b 44 24 10       	mov    0x10(%rsp),%rax
  403633:	48 3b 44 24 38       	cmp    0x38(%rsp),%rax
  403638:	0f 84 82 04 00 00    	je     403ac0 <lu+0x9b0>
  40363e:	49 89 c4             	mov    %rax,%r12
  403641:	48 c7 c0 f8 ff ff ff 	mov    $0xfffffffffffffff8,%rax
  403648:	64 48 8b 08          	mov    %fs:(%rax),%rcx
  40364c:	48 c7 c0 b0 ff ff ff 	mov    $0xffffffffffffffb0,%rax
  403653:	64 48 8b 30          	mov    %fs:(%rax),%rsi
  403657:	0f 31                	rdtsc  
  403659:	48 c1 e2 20          	shl    $0x20,%rdx
  40365d:	48 09 c2             	or     %rax,%rdx
  403660:	48 29 ca             	sub    %rcx,%rdx
  403663:	48 39 f2             	cmp    %rsi,%rdx
  403666:	72 0c                	jb     403674 <lu+0x564>
  403668:	31 c0                	xor    %eax,%eax
  40366a:	e8 c1 3a 00 00       	callq  407130 <concord_rdtsc_func>
  40366f:	48 8b 7c 24 18       	mov    0x18(%rsp),%rdi
  403674:	49 8d 44 24 01       	lea    0x1(%r12),%rax
  403679:	48 89 44 24 10       	mov    %rax,0x10(%rsp)
  40367e:	48 3b 44 24 38       	cmp    0x38(%rsp),%rax
  403683:	0f 8d 57 ff ff ff    	jge    4035e0 <lu+0x4d0>
  403689:	4d 89 e2             	mov    %r12,%r10
  40368c:	4c 0f af 54 24 08    	imul   0x8(%rsp),%r10
  403692:	4f 8d 04 22          	lea    (%r10,%r12,1),%r8
  403696:	4c 89 e0             	mov    %r12,%rax
  403699:	48 f7 d0             	not    %rax
  40369c:	48 03 44 24 38       	add    0x38(%rsp),%rax
  4036a1:	48 85 c0             	test   %rax,%rax
  4036a4:	4c 89 44 24 30       	mov    %r8,0x30(%rsp)
  4036a9:	0f 8e 22 01 00 00    	jle    4037d1 <lu+0x6c1>
  4036af:	4c 8b 8c 24 f8 00 00 	mov    0xf8(%rsp),%r9
  4036b6:	00 
  4036b7:	4d 29 e1             	sub    %r12,%r9
  4036ba:	4c 39 a4 24 20 01 00 	cmp    %r12,0x120(%rsp)
  4036c1:	00 
  4036c2:	4c 89 4c 24 28       	mov    %r9,0x28(%rsp)
  4036c7:	0f 85 48 02 00 00    	jne    403915 <lu+0x805>
  4036cd:	4c 03 54 24 10       	add    0x10(%rsp),%r10
  4036d2:	41 bf 01 00 00 00    	mov    $0x1,%r15d
  4036d8:	48 8b 9c 24 80 00 00 	mov    0x80(%rsp),%rbx
  4036df:	00 
  4036e0:	48 8b ac 24 d8 00 00 	mov    0xd8(%rsp),%rbp
  4036e7:	00 
  4036e8:	4c 8b b4 24 b8 00 00 	mov    0xb8(%rsp),%r14
  4036ef:	00 
  4036f0:	4c 8b 64 24 70       	mov    0x70(%rsp),%r12
  4036f5:	4c 89 94 24 c0 00 00 	mov    %r10,0xc0(%rsp)
  4036fc:	00 
  4036fd:	eb 24                	jmp    403723 <lu+0x613>
  4036ff:	90                   	nop
  403700:	49 83 c7 02          	add    $0x2,%r15
  403704:	48 8b 84 24 e8 00 00 	mov    0xe8(%rsp),%rax
  40370b:	00 
  40370c:	49 01 c4             	add    %rax,%r12
  40370f:	49 01 c6             	add    %rax,%r14
  403712:	48 01 c5             	add    %rax,%rbp
  403715:	48 01 c3             	add    %rax,%rbx
  403718:	4c 39 7c 24 50       	cmp    %r15,0x50(%rsp)
  40371d:	0f 84 bd fe ff ff    	je     4035e0 <lu+0x4d0>
  403723:	48 c7 c0 f8 ff ff ff 	mov    $0xfffffffffffffff8,%rax
  40372a:	64 48 8b 08          	mov    %fs:(%rax),%rcx
  40372e:	48 c7 c0 b0 ff ff ff 	mov    $0xffffffffffffffb0,%rax
  403735:	64 48 8b 30          	mov    %fs:(%rax),%rsi
  403739:	0f 31                	rdtsc  
  40373b:	48 c1 e2 20          	shl    $0x20,%rdx
  40373f:	48 09 c2             	or     %rax,%rdx
  403742:	48 29 ca             	sub    %rcx,%rdx
  403745:	48 39 f2             	cmp    %rsi,%rdx
  403748:	72 1e                	jb     403768 <lu+0x658>
  40374a:	31 c0                	xor    %eax,%eax
  40374c:	e8 df 39 00 00       	callq  407130 <concord_rdtsc_func>
  403751:	4c 8b 94 24 c0 00 00 	mov    0xc0(%rsp),%r10
  403758:	00 
  403759:	4c 8b 4c 24 28       	mov    0x28(%rsp),%r9
  40375e:	4c 8b 44 24 30       	mov    0x30(%rsp),%r8
  403763:	48 8b 7c 24 18       	mov    0x18(%rsp),%rdi
  403768:	48 8b 84 24 e0 00 00 	mov    0xe0(%rsp),%rax
  40376f:	00 
  403770:	f2 0f 10 04 18       	movsd  (%rax,%rbx,1),%xmm0
  403775:	f2 42 0f 5e 04 c7    	divsd  (%rdi,%r8,8),%xmm0
  40377b:	f2 0f 11 04 18       	movsd  %xmm0,(%rax,%rbx,1)
  403780:	41 f6 c1 01          	test   $0x1,%r9b
  403784:	74 14                	je     40379a <lu+0x68a>
  403786:	f2 0f 10 0c 28       	movsd  (%rax,%rbp,1),%xmm1
  40378b:	f2 42 0f 59 04 d7    	mulsd  (%rdi,%r10,8),%xmm0
  403791:	f2 0f 5c c8          	subsd  %xmm0,%xmm1
  403795:	f2 0f 11 0c 28       	movsd  %xmm1,(%rax,%rbp,1)
  40379a:	f2 42 0f 10 04 30    	movsd  (%rax,%r14,1),%xmm0
  4037a0:	f2 42 0f 5e 04 c7    	divsd  (%rdi,%r8,8),%xmm0
  4037a6:	f2 42 0f 11 04 30    	movsd  %xmm0,(%rax,%r14,1)
  4037ac:	41 f6 c1 01          	test   $0x1,%r9b
  4037b0:	0f 84 4a ff ff ff    	je     403700 <lu+0x5f0>
  4037b6:	f2 42 0f 10 0c 20    	movsd  (%rax,%r12,1),%xmm1
  4037bc:	f2 42 0f 59 04 d7    	mulsd  (%rdi,%r10,8),%xmm0
  4037c2:	f2 0f 5c c8          	subsd  %xmm0,%xmm1
  4037c6:	f2 42 0f 11 0c 20    	movsd  %xmm1,(%rax,%r12,1)
  4037cc:	e9 2f ff ff ff       	jmpq   403700 <lu+0x5f0>
  4037d1:	48 8b 84 24 a0 00 00 	mov    0xa0(%rsp),%rax
  4037d8:	00 
  4037d9:	4c 29 e0             	sub    %r12,%rax
  4037dc:	48 8b 4c 24 10       	mov    0x10(%rsp),%rcx
  4037e1:	48 89 ca             	mov    %rcx,%rdx
  4037e4:	a8 01                	test   $0x1,%al
  4037e6:	74 21                	je     403809 <lu+0x6f9>
  4037e8:	48 89 c8             	mov    %rcx,%rax
  4037eb:	48 0f af 44 24 08    	imul   0x8(%rsp),%rax
  4037f1:	4c 01 e0             	add    %r12,%rax
  4037f4:	f2 0f 10 04 c7       	movsd  (%rdi,%rax,8),%xmm0
  4037f9:	f2 42 0f 5e 04 c7    	divsd  (%rdi,%r8,8),%xmm0
  4037ff:	f2 0f 11 04 c7       	movsd  %xmm0,(%rdi,%rax,8)
  403804:	49 8d 54 24 02       	lea    0x2(%r12),%rdx
  403809:	4c 39 a4 24 20 01 00 	cmp    %r12,0x120(%rsp)
  403810:	00 
  403811:	0f 84 c9 fd ff ff    	je     4035e0 <lu+0x4d0>
  403817:	48 8b 84 24 b0 00 00 	mov    0xb0(%rsp),%rax
  40381e:	00 
  40381f:	48 89 c3             	mov    %rax,%rbx
  403822:	48 0f af da          	imul   %rdx,%rbx
  403826:	48 8b 4c 24 60       	mov    0x60(%rsp),%rcx
  40382b:	48 01 cb             	add    %rcx,%rbx
  40382e:	48 8b 6c 24 40       	mov    0x40(%rsp),%rbp
  403833:	48 29 d5             	sub    %rdx,%rbp
  403836:	4c 8d 62 03          	lea    0x3(%rdx),%r12
  40383a:	4c 0f af e0          	imul   %rax,%r12
  40383e:	49 01 cc             	add    %rcx,%r12
  403841:	4c 8d 7a 02          	lea    0x2(%rdx),%r15
  403845:	4c 0f af f8          	imul   %rax,%r15
  403849:	49 01 cf             	add    %rcx,%r15
  40384c:	48 83 c2 01          	add    $0x1,%rdx
  403850:	48 0f af d0          	imul   %rax,%rdx
  403854:	48 01 ca             	add    %rcx,%rdx
  403857:	48 89 54 24 28       	mov    %rdx,0x28(%rsp)
  40385c:	4c 8b b4 24 e0 00 00 	mov    0xe0(%rsp),%r14
  403863:	00 
  403864:	eb 6e                	jmp    4038d4 <lu+0x7c4>
  403866:	66 2e 0f 1f 84 00 00 	nopw   %cs:0x0(%rax,%rax,1)
  40386d:	00 00 00 
  403870:	f2 41 0f 10 04 1e    	movsd  (%r14,%rbx,1),%xmm0
  403876:	f2 42 0f 5e 04 c7    	divsd  (%rdi,%r8,8),%xmm0
  40387c:	f2 41 0f 11 04 1e    	movsd  %xmm0,(%r14,%rbx,1)
  403882:	48 8b 44 24 28       	mov    0x28(%rsp),%rax
  403887:	f2 41 0f 10 04 06    	movsd  (%r14,%rax,1),%xmm0
  40388d:	f2 42 0f 5e 04 c7    	divsd  (%rdi,%r8,8),%xmm0
  403893:	f2 41 0f 11 04 06    	movsd  %xmm0,(%r14,%rax,1)
  403899:	f2 43 0f 10 04 3e    	movsd  (%r14,%r15,1),%xmm0
  40389f:	f2 42 0f 5e 04 c7    	divsd  (%rdi,%r8,8),%xmm0
  4038a5:	f2 43 0f 11 04 3e    	movsd  %xmm0,(%r14,%r15,1)
  4038ab:	f2 43 0f 10 04 26    	movsd  (%r14,%r12,1),%xmm0
  4038b1:	f2 42 0f 5e 04 c7    	divsd  (%rdi,%r8,8),%xmm0
  4038b7:	f2 43 0f 11 04 26    	movsd  %xmm0,(%r14,%r12,1)
  4038bd:	4c 03 b4 24 b8 02 00 	add    0x2b8(%rsp),%r14
  4038c4:	00 
  4038c5:	48 83 c5 fc          	add    $0xfffffffffffffffc,%rbp
  4038c9:	48 39 6c 24 20       	cmp    %rbp,0x20(%rsp)
  4038ce:	0f 84 0c fd ff ff    	je     4035e0 <lu+0x4d0>
  4038d4:	48 c7 c0 f8 ff ff ff 	mov    $0xfffffffffffffff8,%rax
  4038db:	64 48 8b 08          	mov    %fs:(%rax),%rcx
  4038df:	48 c7 c0 b0 ff ff ff 	mov    $0xffffffffffffffb0,%rax
  4038e6:	64 48 8b 30          	mov    %fs:(%rax),%rsi
  4038ea:	0f 31                	rdtsc  
  4038ec:	48 c1 e2 20          	shl    $0x20,%rdx
  4038f0:	48 09 c2             	or     %rax,%rdx
  4038f3:	48 29 ca             	sub    %rcx,%rdx
  4038f6:	48 39 f2             	cmp    %rsi,%rdx
  4038f9:	0f 82 71 ff ff ff    	jb     403870 <lu+0x760>
  4038ff:	31 c0                	xor    %eax,%eax
  403901:	e8 2a 38 00 00       	callq  407130 <concord_rdtsc_func>
  403906:	4c 8b 44 24 30       	mov    0x30(%rsp),%r8
  40390b:	48 8b 7c 24 18       	mov    0x18(%rsp),%rdi
  403910:	e9 5b ff ff ff       	jmpq   403870 <lu+0x760>
  403915:	0f b6 44 24 68       	movzbl 0x68(%rsp),%eax
  40391a:	83 e0 01             	and    $0x1,%eax
  40391d:	48 8b 5c 24 50       	mov    0x50(%rsp),%rbx
  403922:	48 29 c3             	sub    %rax,%rbx
  403925:	48 8b ac 24 a8 00 00 	mov    0xa8(%rsp),%rbp
  40392c:	00 
  40392d:	4c 8b 74 24 78       	mov    0x78(%rsp),%r14
  403932:	4c 8b 7c 24 10       	mov    0x10(%rsp),%r15
  403937:	eb 1c                	jmp    403955 <lu+0x845>
  403939:	0f 1f 80 00 00 00 00 	nopl   0x0(%rax)
  403940:	49 83 c7 02          	add    $0x2,%r15
  403944:	49 01 d6             	add    %rdx,%r14
  403947:	48 01 d5             	add    %rdx,%rbp
  40394a:	4c 3b 7c 24 38       	cmp    0x38(%rsp),%r15
  40394f:	0f 84 8b fc ff ff    	je     4035e0 <lu+0x4d0>
  403955:	48 c7 c0 f8 ff ff ff 	mov    $0xfffffffffffffff8,%rax
  40395c:	64 48 8b 08          	mov    %fs:(%rax),%rcx
  403960:	48 c7 c0 b0 ff ff ff 	mov    $0xffffffffffffffb0,%rax
  403967:	64 48 8b 30          	mov    %fs:(%rax),%rsi
  40396b:	0f 31                	rdtsc  
  40396d:	48 c1 e2 20          	shl    $0x20,%rdx
  403971:	48 09 c2             	or     %rax,%rdx
  403974:	48 29 ca             	sub    %rcx,%rdx
  403977:	48 39 f2             	cmp    %rsi,%rdx
  40397a:	72 16                	jb     403992 <lu+0x882>
  40397c:	31 c0                	xor    %eax,%eax
  40397e:	e8 ad 37 00 00       	callq  407130 <concord_rdtsc_func>
  403983:	4c 8b 4c 24 28       	mov    0x28(%rsp),%r9
  403988:	4c 8b 44 24 30       	mov    0x30(%rsp),%r8
  40398d:	48 8b 7c 24 18       	mov    0x18(%rsp),%rdi
  403992:	4c 89 f8             	mov    %r15,%rax
  403995:	48 0f af 44 24 08    	imul   0x8(%rsp),%rax
  40399b:	4c 01 e0             	add    %r12,%rax
  40399e:	f2 0f 10 04 c7       	movsd  (%rdi,%rax,8),%xmm0
  4039a3:	f2 42 0f 5e 04 c7    	divsd  (%rdi,%r8,8),%xmm0
  4039a9:	f2 0f 11 04 c7       	movsd  %xmm0,(%rdi,%rax,8)
  4039ae:	b9 01 00 00 00       	mov    $0x1,%ecx
  4039b3:	48 8b 94 24 e8 00 00 	mov    0xe8(%rsp),%rdx
  4039ba:	00 
  4039bb:	0f 1f 44 00 00       	nopl   0x0(%rax,%rax,1)
  4039c0:	48 89 c8             	mov    %rcx,%rax
  4039c3:	f2 41 0f 10 4c cd 00 	movsd  0x0(%r13,%rcx,8),%xmm1
  4039ca:	f2 0f 59 c8          	mulsd  %xmm0,%xmm1
  4039ce:	f2 41 0f 10 14 ce    	movsd  (%r14,%rcx,8),%xmm2
  4039d4:	f2 0f 5c d1          	subsd  %xmm1,%xmm2
  4039d8:	f2 41 0f 10 4c ce 08 	movsd  0x8(%r14,%rcx,8),%xmm1
  4039df:	f2 41 0f 11 14 ce    	movsd  %xmm2,(%r14,%rcx,8)
  4039e5:	f2 41 0f 10 54 cd 08 	movsd  0x8(%r13,%rcx,8),%xmm2
  4039ec:	f2 0f 59 d0          	mulsd  %xmm0,%xmm2
  4039f0:	f2 0f 5c ca          	subsd  %xmm2,%xmm1
  4039f4:	f2 41 0f 11 4c ce 08 	movsd  %xmm1,0x8(%r14,%rcx,8)
  4039fb:	48 83 c1 02          	add    $0x2,%rcx
  4039ff:	48 39 cb             	cmp    %rcx,%rbx
  403a02:	75 bc                	jne    4039c0 <lu+0x8b0>
  403a04:	41 f6 c1 01          	test   $0x1,%r9b
  403a08:	74 19                	je     403a23 <lu+0x913>
  403a0a:	f2 41 0f 10 4c c6 10 	movsd  0x10(%r14,%rax,8),%xmm1
  403a11:	f2 41 0f 59 44 c5 10 	mulsd  0x10(%r13,%rax,8),%xmm0
  403a18:	f2 0f 5c c8          	subsd  %xmm0,%xmm1
  403a1c:	f2 41 0f 11 4c c6 10 	movsd  %xmm1,0x10(%r14,%rax,8)
  403a23:	49 8d 47 01          	lea    0x1(%r15),%rax
  403a27:	48 0f af 44 24 08    	imul   0x8(%rsp),%rax
  403a2d:	4c 01 e0             	add    %r12,%rax
  403a30:	f2 0f 10 04 c7       	movsd  (%rdi,%rax,8),%xmm0
  403a35:	f2 42 0f 5e 04 c7    	divsd  (%rdi,%r8,8),%xmm0
  403a3b:	f2 0f 11 04 c7       	movsd  %xmm0,(%rdi,%rax,8)
  403a40:	b9 01 00 00 00       	mov    $0x1,%ecx
  403a45:	66 2e 0f 1f 84 00 00 	nopw   %cs:0x0(%rax,%rax,1)
  403a4c:	00 00 00 
  403a4f:	90                   	nop
  403a50:	48 89 c8             	mov    %rcx,%rax
  403a53:	f2 41 0f 10 4c cd 00 	movsd  0x0(%r13,%rcx,8),%xmm1
  403a5a:	f2 0f 59 c8          	mulsd  %xmm0,%xmm1
  403a5e:	f2 0f 10 54 cd 00    	movsd  0x0(%rbp,%rcx,8),%xmm2
  403a64:	f2 0f 5c d1          	subsd  %xmm1,%xmm2
  403a68:	f2 0f 10 4c cd 08    	movsd  0x8(%rbp,%rcx,8),%xmm1
  403a6e:	f2 0f 11 54 cd 00    	movsd  %xmm2,0x0(%rbp,%rcx,8)
  403a74:	f2 41 0f 10 54 cd 08 	movsd  0x8(%r13,%rcx,8),%xmm2
  403a7b:	f2 0f 59 d0          	mulsd  %xmm0,%xmm2
  403a7f:	f2 0f 5c ca          	subsd  %xmm2,%xmm1
  403a83:	f2 0f 11 4c cd 08    	movsd  %xmm1,0x8(%rbp,%rcx,8)
  403a89:	48 83 c1 02          	add    $0x2,%rcx
  403a8d:	48 39 cb             	cmp    %rcx,%rbx
  403a90:	75 be                	jne    403a50 <lu+0x940>
  403a92:	41 f6 c1 01          	test   $0x1,%r9b
  403a96:	0f 84 a4 fe ff ff    	je     403940 <lu+0x830>
  403a9c:	f2 0f 10 4c c5 10    	movsd  0x10(%rbp,%rax,8),%xmm1
  403aa2:	f2 41 0f 59 44 c5 10 	mulsd  0x10(%r13,%rax,8),%xmm0
  403aa9:	f2 0f 5c c8          	subsd  %xmm0,%xmm1
  403aad:	f2 0f 11 4c c5 10    	movsd  %xmm1,0x10(%rbp,%rax,8)
  403ab3:	e9 88 fe ff ff       	jmpq   403940 <lu+0x830>
  403ab8:	0f 1f 84 00 00 00 00 	nopl   0x0(%rax,%rax,1)
  403abf:	00 
  403ac0:	44 8a 74 24 07       	mov    0x7(%rsp),%r14b
  403ac5:	45 84 f6             	test   %r14b,%r14b
  403ac8:	74 2b                	je     403af5 <lu+0x9e5>
  403aca:	48 8d bc 24 88 00 00 	lea    0x88(%rsp),%rdi
  403ad1:	00 
  403ad2:	31 f6                	xor    %esi,%esi
  403ad4:	e8 57 d4 ff ff       	callq  400f30 <gettimeofday@plt>
  403ad9:	48 69 84 24 88 00 00 	imul   $0xf4240,0x88(%rsp),%rax
  403ae0:	00 40 42 0f 00 
  403ae5:	48 03 84 24 90 00 00 	add    0x90(%rsp),%rax
  403aec:	00 
  403aed:	48 89 84 24 60 02 00 	mov    %rax,0x260(%rsp)
  403af4:	00 
  403af5:	48 8b 3d dc 56 20 00 	mov    0x2056dc(%rip),%rdi        # 6091d8 <Global>
  403afc:	48 83 c7 50          	add    $0x50,%rdi
  403b00:	e8 5b d5 ff ff       	callq  401060 <pthread_mutex_lock@plt>
  403b05:	85 c0                	test   %eax,%eax
  403b07:	48 8b ac 24 18 01 00 	mov    0x118(%rsp),%rbp
  403b0e:	00 
  403b0f:	4c 8b a4 24 e8 00 00 	mov    0xe8(%rsp),%r12
  403b16:	00 
  403b17:	0f 85 0d 19 00 00    	jne    40542a <lu+0x231a>
  403b1d:	48 8b 3d b4 56 20 00 	mov    0x2056b4(%rip),%rdi        # 6091d8 <Global>
  403b24:	48 8b 87 a8 00 00 00 	mov    0xa8(%rdi),%rax
  403b2b:	48 8b 9f b0 00 00 00 	mov    0xb0(%rdi),%rbx
  403b32:	48 83 c0 01          	add    $0x1,%rax
  403b36:	48 89 87 a8 00 00 00 	mov    %rax,0xa8(%rdi)
  403b3d:	48 3b 05 f4 55 20 00 	cmp    0x2055f4(%rip),%rax        # 609138 <P>
  403b44:	4c 8b 7c 24 08       	mov    0x8(%rsp),%r15
  403b49:	75 35                	jne    403b80 <lu+0xa70>
  403b4b:	31 c0                	xor    %eax,%eax
  403b4d:	48 85 db             	test   %rbx,%rbx
  403b50:	0f 94 c0             	sete   %al
  403b53:	48 89 87 b0 00 00 00 	mov    %rax,0xb0(%rdi)
  403b5a:	48 c7 87 a8 00 00 00 	movq   $0x0,0xa8(%rdi)
  403b61:	00 00 00 00 
  403b65:	48 83 c7 78          	add    $0x78,%rdi
  403b69:	e8 32 d3 ff ff       	callq  400ea0 <pthread_cond_broadcast@plt>
  403b6e:	e9 ad 00 00 00       	jmpq   403c20 <lu+0xb10>
  403b73:	66 2e 0f 1f 84 00 00 	nopw   %cs:0x0(%rax,%rax,1)
  403b7a:	00 00 00 
  403b7d:	0f 1f 00             	nopl   (%rax)
  403b80:	bf 01 00 00 00       	mov    $0x1,%edi
  403b85:	48 8d b4 24 88 00 00 	lea    0x88(%rsp),%rsi
  403b8c:	00 
  403b8d:	e8 5e d3 ff ff       	callq  400ef0 <pthread_setcancelstate@plt>
  403b92:	66 2e 0f 1f 84 00 00 	nopw   %cs:0x0(%rax,%rax,1)
  403b99:	00 00 00 
  403b9c:	0f 1f 40 00          	nopl   0x0(%rax)
  403ba0:	48 c7 c0 f8 ff ff ff 	mov    $0xfffffffffffffff8,%rax
  403ba7:	64 48 8b 08          	mov    %fs:(%rax),%rcx
  403bab:	48 c7 c0 b0 ff ff ff 	mov    $0xffffffffffffffb0,%rax
  403bb2:	64 48 8b 30          	mov    %fs:(%rax),%rsi
  403bb6:	0f 31                	rdtsc  
  403bb8:	48 c1 e2 20          	shl    $0x20,%rdx
  403bbc:	48 09 c2             	or     %rax,%rdx
  403bbf:	48 29 ca             	sub    %rcx,%rdx
  403bc2:	48 39 f2             	cmp    %rsi,%rdx
  403bc5:	72 07                	jb     403bce <lu+0xabe>
  403bc7:	31 c0                	xor    %eax,%eax
  403bc9:	e8 62 35 00 00       	callq  407130 <concord_rdtsc_func>
  403bce:	48 8b 35 03 56 20 00 	mov    0x205603(%rip),%rsi        # 6091d8 <Global>
  403bd5:	48 3b 9e b0 00 00 00 	cmp    0xb0(%rsi),%rbx
  403bdc:	75 2e                	jne    403c0c <lu+0xafc>
  403bde:	48 8d 7e 78          	lea    0x78(%rsi),%rdi
  403be2:	48 83 c6 50          	add    $0x50,%rsi
  403be6:	e8 e5 d2 ff ff       	callq  400ed0 <pthread_cond_wait@plt>
  403beb:	48 8b 35 e6 55 20 00 	mov    0x2055e6(%rip),%rsi        # 6091d8 <Global>
  403bf2:	48 3b 9e b0 00 00 00 	cmp    0xb0(%rsi),%rbx
  403bf9:	75 11                	jne    403c0c <lu+0xafc>
  403bfb:	48 8d 7e 78          	lea    0x78(%rsi),%rdi
  403bff:	48 83 c6 50          	add    $0x50,%rsi
  403c03:	e8 c8 d2 ff ff       	callq  400ed0 <pthread_cond_wait@plt>
  403c08:	85 c0                	test   %eax,%eax
  403c0a:	74 94                	je     403ba0 <lu+0xa90>
  403c0c:	8b bc 24 88 00 00 00 	mov    0x88(%rsp),%edi
  403c13:	48 8d b4 24 c0 02 00 	lea    0x2c0(%rsp),%rsi
  403c1a:	00 
  403c1b:	e8 d0 d2 ff ff       	callq  400ef0 <pthread_setcancelstate@plt>
  403c20:	4c 89 f8             	mov    %r15,%rax
  403c23:	48 0f af 44 24 40    	imul   0x40(%rsp),%rax
  403c29:	48 89 84 24 b0 01 00 	mov    %rax,0x1b0(%rsp)
  403c30:	00 
  403c31:	48 8b 3d a0 55 20 00 	mov    0x2055a0(%rip),%rdi        # 6091d8 <Global>
  403c38:	48 83 c7 50          	add    $0x50,%rdi
  403c3c:	e8 5f d3 ff ff       	callq  400fa0 <pthread_mutex_unlock@plt>
  403c41:	45 84 f6             	test   %r14b,%r14b
  403c44:	74 2b                	je     403c71 <lu+0xb61>
  403c46:	48 8d bc 24 88 00 00 	lea    0x88(%rsp),%rdi
  403c4d:	00 
  403c4e:	31 f6                	xor    %esi,%esi
  403c50:	e8 db d2 ff ff       	callq  400f30 <gettimeofday@plt>
  403c55:	48 69 84 24 88 00 00 	imul   $0xf4240,0x88(%rsp),%rax
  403c5c:	00 40 42 0f 00 
  403c61:	48 03 84 24 90 00 00 	add    0x90(%rsp),%rax
  403c68:	00 
  403c69:	48 89 84 24 50 02 00 	mov    %rax,0x250(%rsp)
  403c70:	00 
  403c71:	48 8b 4c 24 40       	mov    0x40(%rsp),%rcx
  403c76:	48 8d 04 29          	lea    (%rcx,%rbp,1),%rax
  403c7a:	48 89 84 24 60 01 00 	mov    %rax,0x160(%rsp)
  403c81:	00 
  403c82:	48 8b 84 24 88 02 00 	mov    0x288(%rsp),%rax
  403c89:	00 
  403c8a:	48 0f af c1          	imul   %rcx,%rax
  403c8e:	48 89 84 24 00 02 00 	mov    %rax,0x200(%rsp)
  403c95:	00 
  403c96:	48 8b 84 24 10 02 00 	mov    0x210(%rsp),%rax
  403c9d:	00 
  403c9e:	48 01 c8             	add    %rcx,%rax
  403ca1:	48 89 84 24 f8 01 00 	mov    %rax,0x1f8(%rsp)
  403ca8:	00 
  403ca9:	48 89 c8             	mov    %rcx,%rax
  403cac:	48 f7 d8             	neg    %rax
  403caf:	48 89 84 24 78 01 00 	mov    %rax,0x178(%rsp)
  403cb6:	00 
  403cb7:	48 8b 44 24 20       	mov    0x20(%rsp),%rax
  403cbc:	48 01 84 24 b0 01 00 	add    %rax,0x1b0(%rsp)
  403cc3:	00 
  403cc4:	48 8b 8c 24 98 00 00 	mov    0x98(%rsp),%rcx
  403ccb:	00 
  403ccc:	48 01 e9             	add    %rbp,%rcx
  403ccf:	48 89 8c 24 90 01 00 	mov    %rcx,0x190(%rsp)
  403cd6:	00 
  403cd7:	49 0f af c7          	imul   %r15,%rax
  403cdb:	48 89 84 24 68 01 00 	mov    %rax,0x168(%rsp)
  403ce2:	00 
  403ce3:	48 8b 84 24 f0 00 00 	mov    0xf0(%rsp),%rax
  403cea:	00 
  403ceb:	48 83 c0 01          	add    $0x1,%rax
  403cef:	48 89 84 24 08 01 00 	mov    %rax,0x108(%rsp)
  403cf6:	00 
  403cf7:	4c 39 bc 24 b8 01 00 	cmp    %r15,0x1b8(%rsp)
  403cfe:	00 
  403cff:	0f 8d eb 0d 00 00    	jge    404af0 <lu+0x19e0>
  403d05:	4c 8b ac 24 00 01 00 	mov    0x100(%rsp),%r13
  403d0c:	00 
  403d0d:	4c 2b 6c 24 20       	sub    0x20(%rsp),%r13
  403d12:	0f 8e d8 0d 00 00    	jle    404af0 <lu+0x19e0>
  403d18:	48 8b 54 24 40       	mov    0x40(%rsp),%rdx
  403d1d:	48 8d 3c d5 08 00 00 	lea    0x8(,%rdx,8),%rdi
  403d24:	00 
  403d25:	48 8b 84 24 d8 01 00 	mov    0x1d8(%rsp),%rax
  403d2c:	00 
  403d2d:	4c 8d 04 02          	lea    (%rdx,%rax,1),%r8
  403d31:	48 8b 84 24 d0 00 00 	mov    0xd0(%rsp),%rax
  403d38:	00 
  403d39:	48 89 c3             	mov    %rax,%rbx
  403d3c:	48 2b 5c 24 58       	sub    0x58(%rsp),%rbx
  403d41:	48 8b 8c 24 30 02 00 	mov    0x230(%rsp),%rcx
  403d48:	00 
  403d49:	48 8b b4 24 00 02 00 	mov    0x200(%rsp),%rsi
  403d50:	00 
  403d51:	48 01 f1             	add    %rsi,%rcx
  403d54:	48 89 8c 24 a0 00 00 	mov    %rcx,0xa0(%rsp)
  403d5b:	00 
  403d5c:	48 8d 4e fe          	lea    -0x2(%rsi),%rcx
  403d60:	48 89 8c 24 38 01 00 	mov    %rcx,0x138(%rsp)
  403d67:	00 
  403d68:	49 0f af ff          	imul   %r15,%rdi
  403d6c:	48 89 7c 24 58       	mov    %rdi,0x58(%rsp)
  403d71:	48 8b 8c 24 18 02 00 	mov    0x218(%rsp),%rcx
  403d78:	00 
  403d79:	48 8d 2c 11          	lea    (%rcx,%rdx,1),%rbp
  403d7d:	48 8b 94 24 60 01 00 	mov    0x160(%rsp),%rdx
  403d84:	00 
  403d85:	48 89 d1             	mov    %rdx,%rcx
  403d88:	48 f7 d9             	neg    %rcx
  403d8b:	48 89 8c 24 80 00 00 	mov    %rcx,0x80(%rsp)
  403d92:	00 
  403d93:	48 8b bc 24 f8 01 00 	mov    0x1f8(%rsp),%rdi
  403d9a:	00 
  403d9b:	48 8d 0c fd 00 00 00 	lea    0x0(,%rdi,8),%rcx
  403da2:	00 
  403da3:	48 89 4c 24 10       	mov    %rcx,0x10(%rsp)
  403da8:	48 01 44 24 48       	add    %rax,0x48(%rsp)
  403dad:	48 83 c3 fe          	add    $0xfffffffffffffffe,%rbx
  403db1:	48 89 5c 24 50       	mov    %rbx,0x50(%rsp)
  403db6:	48 8b 05 2b 56 20 00 	mov    0x20562b(%rip),%rax        # 6093e8 <a>
  403dbd:	48 8b 4c 24 20       	mov    0x20(%rsp),%rcx
  403dc2:	48 8b b4 24 68 01 00 	mov    0x168(%rsp),%rsi
  403dc9:	00 
  403dca:	48 8d 0c 0e          	lea    (%rsi,%rcx,1),%rcx
  403dce:	48 8d 0c c8          	lea    (%rax,%rcx,8),%rcx
  403dd2:	48 89 4c 24 38       	mov    %rcx,0x38(%rsp)
  403dd7:	48 8b 0d 5a 53 20 00 	mov    0x20535a(%rip),%rcx        # 609138 <P>
  403dde:	48 89 4c 24 28       	mov    %rcx,0x28(%rsp)
  403de3:	48 8b 8c 24 98 00 00 	mov    0x98(%rsp),%rcx
  403dea:	00 
  403deb:	48 8d 49 01          	lea    0x1(%rcx),%rcx
  403def:	48 89 8c 24 58 01 00 	mov    %rcx,0x158(%rsp)
  403df6:	00 
  403df7:	4a 8d 0c f8          	lea    (%rax,%r15,8),%rcx
  403dfb:	4a 8d 34 c1          	lea    (%rcx,%r8,8),%rsi
  403dff:	48 89 74 24 78       	mov    %rsi,0x78(%rsp)
  403e04:	4a 8d 34 c0          	lea    (%rax,%r8,8),%rsi
  403e08:	48 89 b4 24 a8 00 00 	mov    %rsi,0xa8(%rsp)
  403e0f:	00 
  403e10:	4a 8d 34 c5 00 00 00 	lea    0x0(,%r8,8),%rsi
  403e17:	00 
  403e18:	48 89 b4 24 b8 00 00 	mov    %rsi,0xb8(%rsp)
  403e1f:	00 
  403e20:	48 89 8c 24 d0 00 00 	mov    %rcx,0xd0(%rsp)
  403e27:	00 
  403e28:	48 8d 0c f9          	lea    (%rcx,%rdi,8),%rcx
  403e2c:	48 89 4c 24 70       	mov    %rcx,0x70(%rsp)
  403e31:	48 89 84 24 c8 00 00 	mov    %rax,0xc8(%rsp)
  403e38:	00 
  403e39:	48 8d 04 f8          	lea    (%rax,%rdi,8),%rax
  403e3d:	48 89 44 24 68       	mov    %rax,0x68(%rsp)
  403e42:	48 8b 84 24 78 01 00 	mov    0x178(%rsp),%rax
  403e49:	00 
  403e4a:	48 89 44 24 60       	mov    %rax,0x60(%rsp)
  403e4f:	48 89 d3             	mov    %rdx,%rbx
  403e52:	31 c0                	xor    %eax,%eax
  403e54:	48 89 44 24 18       	mov    %rax,0x18(%rsp)
  403e59:	4c 8b b4 24 00 01 00 	mov    0x100(%rsp),%r14
  403e60:	00 
  403e61:	48 8b 84 24 08 01 00 	mov    0x108(%rsp),%rax
  403e68:	00 
  403e69:	48 89 44 24 30       	mov    %rax,0x30(%rsp)
  403e6e:	4c 89 ac 24 d8 00 00 	mov    %r13,0xd8(%rsp)
  403e75:	00 
  403e76:	eb 79                	jmp    403ef1 <lu+0xde1>
  403e78:	0f 1f 84 00 00 00 00 	nopl   0x0(%rax,%rax,1)
  403e7f:	00 
  403e80:	48 83 44 24 30 02    	addq   $0x2,0x30(%rsp)
  403e86:	48 83 44 24 18 02    	addq   $0x2,0x18(%rsp)
  403e8c:	48 8b 8c 24 a8 02 00 	mov    0x2a8(%rsp),%rcx
  403e93:	00 
  403e94:	48 01 4c 24 70       	add    %rcx,0x70(%rsp)
  403e99:	48 01 4c 24 68       	add    %rcx,0x68(%rsp)
  403e9e:	48 8b 84 24 18 02 00 	mov    0x218(%rsp),%rax
  403ea5:	00 
  403ea6:	48 8b 9c 24 c0 00 00 	mov    0xc0(%rsp),%rbx
  403ead:	00 
  403eae:	48 01 c3             	add    %rax,%rbx
  403eb1:	48 29 44 24 60       	sub    %rax,0x60(%rsp)
  403eb6:	48 01 4c 24 10       	add    %rcx,0x10(%rsp)
  403ebb:	48 01 4c 24 78       	add    %rcx,0x78(%rsp)
  403ec0:	48 01 8c 24 a8 00 00 	add    %rcx,0xa8(%rsp)
  403ec7:	00 
  403ec8:	48 8b ac 24 e0 00 00 	mov    0xe0(%rsp),%rbp
  403ecf:	00 
  403ed0:	48 01 c5             	add    %rax,%rbp
  403ed3:	48 29 84 24 80 00 00 	sub    %rax,0x80(%rsp)
  403eda:	00 
  403edb:	48 01 8c 24 b8 00 00 	add    %rcx,0xb8(%rsp)
  403ee2:	00 
  403ee3:	4c 8b 7c 24 08       	mov    0x8(%rsp),%r15
  403ee8:	4d 39 fe             	cmp    %r15,%r14
  403eeb:	0f 8d 7f 05 00 00    	jge    404470 <lu+0x1360>
  403ef1:	49 39 ef             	cmp    %rbp,%r15
  403ef4:	48 89 ac 24 e0 00 00 	mov    %rbp,0xe0(%rsp)
  403efb:	00 
  403efc:	49 0f 4e ef          	cmovle %r15,%rbp
  403f00:	49 39 df             	cmp    %rbx,%r15
  403f03:	48 89 9c 24 c0 00 00 	mov    %rbx,0xc0(%rsp)
  403f0a:	00 
  403f0b:	49 0f 4e df          	cmovle %r15,%rbx
  403f0f:	48 c7 c0 f8 ff ff ff 	mov    $0xfffffffffffffff8,%rax
  403f16:	64 48 8b 08          	mov    %fs:(%rax),%rcx
  403f1a:	48 c7 c0 b0 ff ff ff 	mov    $0xffffffffffffffb0,%rax
  403f21:	64 48 8b 30          	mov    %fs:(%rax),%rsi
  403f25:	0f 31                	rdtsc  
  403f27:	48 c1 e2 20          	shl    $0x20,%rdx
  403f2b:	48 09 c2             	or     %rax,%rdx
  403f2e:	48 29 ca             	sub    %rcx,%rdx
  403f31:	48 39 f2             	cmp    %rsi,%rdx
  403f34:	72 07                	jb     403f3d <lu+0xe2d>
  403f36:	31 c0                	xor    %eax,%eax
  403f38:	e8 f3 31 00 00       	callq  407130 <concord_rdtsc_func>
  403f3d:	48 8b 4c 24 18       	mov    0x18(%rsp),%rcx
  403f42:	48 8b bc 24 18 01 00 	mov    0x118(%rsp),%rdi
  403f49:	00 
  403f4a:	48 0f af cf          	imul   %rdi,%rcx
  403f4e:	48 8b 84 24 90 01 00 	mov    0x190(%rsp),%rax
  403f55:	00 
  403f56:	48 8d 34 01          	lea    (%rcx,%rax,1),%rsi
  403f5a:	4c 39 fe             	cmp    %r15,%rsi
  403f5d:	49 0f 4f f7          	cmovg  %r15,%rsi
  403f61:	48 8b 84 24 f0 00 00 	mov    0xf0(%rsp),%rax
  403f68:	00 
  403f69:	48 8b 54 24 30       	mov    0x30(%rsp),%rdx
  403f6e:	48 01 d0             	add    %rdx,%rax
  403f71:	48 99                	cqto   
  403f73:	48 f7 7c 24 28       	idivq  0x28(%rsp)
  403f78:	4d 8d 04 3e          	lea    (%r14,%rdi,1),%r8
  403f7c:	48 3b 94 24 10 01 00 	cmp    0x110(%rsp),%rdx
  403f83:	00 
  403f84:	0f 85 46 02 00 00    	jne    4041d0 <lu+0x10c0>
  403f8a:	48 8b 54 24 08       	mov    0x8(%rsp),%rdx
  403f8f:	49 39 d0             	cmp    %rdx,%r8
  403f92:	4c 89 c0             	mov    %r8,%rax
  403f95:	48 0f 4f c2          	cmovg  %rdx,%rax
  403f99:	4c 39 f0             	cmp    %r14,%rax
  403f9c:	0f 8e 2e 02 00 00    	jle    4041d0 <lu+0x10c0>
  403fa2:	48 8b 94 24 98 00 00 	mov    0x98(%rsp),%rdx
  403fa9:	00 
  403faa:	48 8d 04 11          	lea    (%rcx,%rdx,1),%rax
  403fae:	49 89 f7             	mov    %rsi,%r15
  403fb1:	49 29 c7             	sub    %rax,%r15
  403fb4:	48 83 c9 01          	or     $0x1,%rcx
  403fb8:	48 01 d1             	add    %rdx,%rcx
  403fbb:	48 39 ce             	cmp    %rcx,%rsi
  403fbe:	0f 85 30 01 00 00    	jne    4040f4 <lu+0xfe4>
  403fc4:	4c 03 b4 24 68 01 00 	add    0x168(%rsp),%r14
  403fcb:	00 
  403fcc:	48 8b 84 24 c8 00 00 	mov    0xc8(%rsp),%rax
  403fd3:	00 
  403fd4:	4e 8d 34 f0          	lea    (%rax,%r14,8),%r14
  403fd8:	4c 8b 94 24 40 01 00 	mov    0x140(%rsp),%r10
  403fdf:	00 
  403fe0:	45 31 c9             	xor    %r9d,%r9d
  403fe3:	eb 20                	jmp    404005 <lu+0xef5>
  403fe5:	66 2e 0f 1f 84 00 00 	nopw   %cs:0x0(%rax,%rax,1)
  403fec:	00 00 00 
  403fef:	90                   	nop
  403ff0:	49 83 c2 08          	add    $0x8,%r10
  403ff4:	4c 8b ac 24 d8 00 00 	mov    0xd8(%rsp),%r13
  403ffb:	00 
  403ffc:	4d 39 e9             	cmp    %r13,%r9
  403fff:	0f 84 cb 01 00 00    	je     4041d0 <lu+0x10c0>
  404005:	4c 89 ce             	mov    %r9,%rsi
  404008:	49 83 c1 01          	add    $0x1,%r9
  40400c:	4d 39 e9             	cmp    %r13,%r9
  40400f:	7d df                	jge    403ff0 <lu+0xee0>
  404011:	41 f6 c7 01          	test   $0x1,%r15b
  404015:	74 d9                	je     403ff0 <lu+0xee0>
  404017:	48 8b 44 24 48       	mov    0x48(%rsp),%rax
  40401c:	48 29 f0             	sub    %rsi,%rax
  40401f:	48 89 f1             	mov    %rsi,%rcx
  404022:	48 0f af 4c 24 08    	imul   0x8(%rsp),%rcx
  404028:	4d 89 cb             	mov    %r9,%r11
  40402b:	a8 01                	test   $0x1,%al
  40402d:	74 31                	je     404060 <lu+0xf50>
  40402f:	4c 89 c8             	mov    %r9,%rax
  404032:	48 0f af 44 24 08    	imul   0x8(%rsp),%rax
  404038:	48 8d 14 30          	lea    (%rax,%rsi,1),%rdx
  40403c:	48 8b 7c 24 38       	mov    0x38(%rsp),%rdi
  404041:	f2 0f 10 04 d7       	movsd  (%rdi,%rdx,8),%xmm0
  404046:	f2 41 0f 59 04 ce    	mulsd  (%r14,%rcx,8),%xmm0
  40404c:	f2 41 0f 10 0c c6    	movsd  (%r14,%rax,8),%xmm1
  404052:	f2 0f 5c c8          	subsd  %xmm0,%xmm1
  404056:	f2 41 0f 11 0c c6    	movsd  %xmm1,(%r14,%rax,8)
  40405c:	4c 8d 5e 02          	lea    0x2(%rsi),%r11
  404060:	48 39 74 24 50       	cmp    %rsi,0x50(%rsp)
  404065:	4c 8b 6c 24 20       	mov    0x20(%rsp),%r13
  40406a:	74 84                	je     403ff0 <lu+0xee0>
  40406c:	48 8b 5c 24 40       	mov    0x40(%rsp),%rbx
  404071:	4c 29 db             	sub    %r11,%rbx
  404074:	49 8d 73 01          	lea    0x1(%r11),%rsi
  404078:	48 8b 84 24 b0 00 00 	mov    0xb0(%rsp),%rax
  40407f:	00 
  404080:	48 0f af f0          	imul   %rax,%rsi
  404084:	48 8b 54 24 10       	mov    0x10(%rsp),%rdx
  404089:	48 8d 3c 32          	lea    (%rdx,%rsi,1),%rdi
  40408d:	4c 01 d6             	add    %r10,%rsi
  404090:	4c 0f af d8          	imul   %rax,%r11
  404094:	4c 01 da             	add    %r11,%rdx
  404097:	4d 01 d3             	add    %r10,%r11
  40409a:	48 8b 84 24 c8 00 00 	mov    0xc8(%rsp),%rax
  4040a1:	00 
  4040a2:	66 2e 0f 1f 84 00 00 	nopw   %cs:0x0(%rax,%rax,1)
  4040a9:	00 00 00 
  4040ac:	0f 1f 40 00          	nopl   0x0(%rax)
  4040b0:	f2 42 0f 10 04 18    	movsd  (%rax,%r11,1),%xmm0
  4040b6:	f2 41 0f 59 04 ce    	mulsd  (%r14,%rcx,8),%xmm0
  4040bc:	f2 0f 10 0c 10       	movsd  (%rax,%rdx,1),%xmm1
  4040c1:	f2 0f 5c c8          	subsd  %xmm0,%xmm1
  4040c5:	f2 0f 11 0c 10       	movsd  %xmm1,(%rax,%rdx,1)
  4040ca:	f2 0f 10 04 30       	movsd  (%rax,%rsi,1),%xmm0
  4040cf:	f2 0f 10 0c 38       	movsd  (%rax,%rdi,1),%xmm1
  4040d4:	f2 41 0f 59 04 ce    	mulsd  (%r14,%rcx,8),%xmm0
  4040da:	f2 0f 5c c8          	subsd  %xmm0,%xmm1
  4040de:	f2 0f 11 0c 38       	movsd  %xmm1,(%rax,%rdi,1)
  4040e3:	48 83 c3 fe          	add    $0xfffffffffffffffe,%rbx
  4040e7:	4c 01 e0             	add    %r12,%rax
  4040ea:	49 39 dd             	cmp    %rbx,%r13
  4040ed:	75 c1                	jne    4040b0 <lu+0xfa0>
  4040ef:	e9 fc fe ff ff       	jmpq   403ff0 <lu+0xee0>
  4040f4:	48 03 5c 24 60       	add    0x60(%rsp),%rbx
  4040f9:	48 83 e3 fe          	and    $0xfffffffffffffffe,%rbx
  4040fd:	48 8b 54 24 68       	mov    0x68(%rsp),%rdx
  404102:	4c 8b 54 24 70       	mov    0x70(%rsp),%r10
  404107:	45 31 db             	xor    %r11d,%r11d
  40410a:	eb 1e                	jmp    40412a <lu+0x101a>
  40410c:	0f 1f 40 00          	nopl   0x0(%rax)
  404110:	48 8b 84 24 b0 00 00 	mov    0xb0(%rsp),%rax
  404117:	00 
  404118:	49 01 c2             	add    %rax,%r10
  40411b:	48 01 c2             	add    %rax,%rdx
  40411e:	4d 89 cb             	mov    %r9,%r11
  404121:	4d 39 e9             	cmp    %r13,%r9
  404124:	0f 84 a6 00 00 00    	je     4041d0 <lu+0x10c0>
  40412a:	4d 8d 4b 01          	lea    0x1(%r11),%r9
  40412e:	4d 39 e9             	cmp    %r13,%r9
  404131:	7d dd                	jge    404110 <lu+0x1000>
  404133:	4c 89 d6             	mov    %r10,%rsi
  404136:	4c 89 c9             	mov    %r9,%rcx
  404139:	eb 16                	jmp    404151 <lu+0x1041>
  40413b:	0f 1f 44 00 00       	nopl   0x0(%rax,%rax,1)
  404140:	48 83 c1 01          	add    $0x1,%rcx
  404144:	48 03 b4 24 b0 00 00 	add    0xb0(%rsp),%rsi
  40414b:	00 
  40414c:	4c 39 e9             	cmp    %r13,%rcx
  40414f:	74 bf                	je     404110 <lu+0x1000>
  404151:	48 89 c8             	mov    %rcx,%rax
  404154:	48 0f af 44 24 08    	imul   0x8(%rsp),%rax
  40415a:	4c 01 d8             	add    %r11,%rax
  40415d:	48 8b 7c 24 38       	mov    0x38(%rsp),%rdi
  404162:	f2 0f 10 04 c7       	movsd  (%rdi,%rax,8),%xmm0
  404167:	31 ff                	xor    %edi,%edi
  404169:	0f 1f 80 00 00 00 00 	nopl   0x0(%rax)
  404170:	48 89 f8             	mov    %rdi,%rax
  404173:	f2 0f 10 0c fa       	movsd  (%rdx,%rdi,8),%xmm1
  404178:	f2 0f 59 c8          	mulsd  %xmm0,%xmm1
  40417c:	f2 0f 10 14 fe       	movsd  (%rsi,%rdi,8),%xmm2
  404181:	f2 0f 5c d1          	subsd  %xmm1,%xmm2
  404185:	f2 0f 10 4c fe 08    	movsd  0x8(%rsi,%rdi,8),%xmm1
  40418b:	f2 0f 11 14 fe       	movsd  %xmm2,(%rsi,%rdi,8)
  404190:	f2 0f 10 54 fa 08    	movsd  0x8(%rdx,%rdi,8),%xmm2
  404196:	f2 0f 59 d0          	mulsd  %xmm0,%xmm2
  40419a:	f2 0f 5c ca          	subsd  %xmm2,%xmm1
  40419e:	f2 0f 11 4c fe 08    	movsd  %xmm1,0x8(%rsi,%rdi,8)
  4041a4:	48 83 c7 02          	add    $0x2,%rdi
  4041a8:	48 39 fb             	cmp    %rdi,%rbx
  4041ab:	75 c3                	jne    404170 <lu+0x1060>
  4041ad:	41 f6 c7 01          	test   $0x1,%r15b
  4041b1:	74 8d                	je     404140 <lu+0x1030>
  4041b3:	f2 0f 10 4c c6 10    	movsd  0x10(%rsi,%rax,8),%xmm1
  4041b9:	f2 0f 59 44 c2 10    	mulsd  0x10(%rdx,%rax,8),%xmm0
  4041bf:	f2 0f 5c c8          	subsd  %xmm0,%xmm1
  4041c3:	f2 0f 11 4c c6 10    	movsd  %xmm1,0x10(%rsi,%rax,8)
  4041c9:	e9 72 ff ff ff       	jmpq   404140 <lu+0x1030>
  4041ce:	66 90                	xchg   %ax,%ax
  4041d0:	48 8b 4c 24 18       	mov    0x18(%rsp),%rcx
  4041d5:	48 83 c9 01          	or     $0x1,%rcx
  4041d9:	48 8b bc 24 18 01 00 	mov    0x118(%rsp),%rdi
  4041e0:	00 
  4041e1:	48 0f af cf          	imul   %rdi,%rcx
  4041e5:	48 8b 84 24 90 01 00 	mov    0x190(%rsp),%rax
  4041ec:	00 
  4041ed:	48 8d 34 01          	lea    (%rcx,%rax,1),%rsi
  4041f1:	48 8b 44 24 08       	mov    0x8(%rsp),%rax
  4041f6:	48 39 c6             	cmp    %rax,%rsi
  4041f9:	48 0f 4f f0          	cmovg  %rax,%rsi
  4041fd:	48 8b 84 24 08 01 00 	mov    0x108(%rsp),%rax
  404204:	00 
  404205:	48 8b 54 24 30       	mov    0x30(%rsp),%rdx
  40420a:	48 01 d0             	add    %rdx,%rax
  40420d:	48 99                	cqto   
  40420f:	48 f7 7c 24 28       	idivq  0x28(%rsp)
  404214:	4d 8d 34 38          	lea    (%r8,%rdi,1),%r14
  404218:	48 3b 94 24 10 01 00 	cmp    0x110(%rsp),%rdx
  40421f:	00 
  404220:	0f 85 5a fc ff ff    	jne    403e80 <lu+0xd70>
  404226:	48 8b 54 24 08       	mov    0x8(%rsp),%rdx
  40422b:	49 39 d6             	cmp    %rdx,%r14
  40422e:	4c 89 f0             	mov    %r14,%rax
  404231:	48 0f 4f c2          	cmovg  %rdx,%rax
  404235:	4c 39 c0             	cmp    %r8,%rax
  404238:	0f 8e 42 fc ff ff    	jle    403e80 <lu+0xd70>
  40423e:	48 8b 84 24 98 00 00 	mov    0x98(%rsp),%rax
  404245:	00 
  404246:	48 01 c8             	add    %rcx,%rax
  404249:	49 89 f7             	mov    %rsi,%r15
  40424c:	49 29 c7             	sub    %rax,%r15
  40424f:	48 03 8c 24 58 01 00 	add    0x158(%rsp),%rcx
  404256:	00 
  404257:	48 39 ce             	cmp    %rcx,%rsi
  40425a:	0f 85 24 01 00 00    	jne    404384 <lu+0x1274>
  404260:	4c 03 84 24 68 01 00 	add    0x168(%rsp),%r8
  404267:	00 
  404268:	48 8b 84 24 c8 00 00 	mov    0xc8(%rsp),%rax
  40426f:	00 
  404270:	4e 8d 1c c0          	lea    (%rax,%r8,8),%r11
  404274:	4c 8b 8c 24 40 01 00 	mov    0x140(%rsp),%r9
  40427b:	00 
  40427c:	45 31 c0             	xor    %r8d,%r8d
  40427f:	eb 1c                	jmp    40429d <lu+0x118d>
  404281:	66 2e 0f 1f 84 00 00 	nopw   %cs:0x0(%rax,%rax,1)
  404288:	00 00 00 
  40428b:	0f 1f 44 00 00       	nopl   0x0(%rax,%rax,1)
  404290:	49 83 c1 08          	add    $0x8,%r9
  404294:	4d 39 e8             	cmp    %r13,%r8
  404297:	0f 84 e3 fb ff ff    	je     403e80 <lu+0xd70>
  40429d:	4c 89 c2             	mov    %r8,%rdx
  4042a0:	49 83 c0 01          	add    $0x1,%r8
  4042a4:	4d 39 e8             	cmp    %r13,%r8
  4042a7:	7d e7                	jge    404290 <lu+0x1180>
  4042a9:	41 f6 c7 01          	test   $0x1,%r15b
  4042ad:	74 e1                	je     404290 <lu+0x1180>
  4042af:	48 8b 44 24 48       	mov    0x48(%rsp),%rax
  4042b4:	48 29 d0             	sub    %rdx,%rax
  4042b7:	48 89 d7             	mov    %rdx,%rdi
  4042ba:	48 0f af 7c 24 08    	imul   0x8(%rsp),%rdi
  4042c0:	4d 89 c2             	mov    %r8,%r10
  4042c3:	a8 01                	test   $0x1,%al
  4042c5:	74 31                	je     4042f8 <lu+0x11e8>
  4042c7:	4c 89 c0             	mov    %r8,%rax
  4042ca:	48 0f af 44 24 08    	imul   0x8(%rsp),%rax
  4042d0:	48 8d 0c 10          	lea    (%rax,%rdx,1),%rcx
  4042d4:	48 8b 74 24 38       	mov    0x38(%rsp),%rsi
  4042d9:	f2 0f 10 04 ce       	movsd  (%rsi,%rcx,8),%xmm0
  4042de:	f2 41 0f 59 04 fb    	mulsd  (%r11,%rdi,8),%xmm0
  4042e4:	f2 41 0f 10 0c c3    	movsd  (%r11,%rax,8),%xmm1
  4042ea:	f2 0f 5c c8          	subsd  %xmm0,%xmm1
  4042ee:	f2 41 0f 11 0c c3    	movsd  %xmm1,(%r11,%rax,8)
  4042f4:	4c 8d 52 02          	lea    0x2(%rdx),%r10
  4042f8:	48 39 54 24 50       	cmp    %rdx,0x50(%rsp)
  4042fd:	74 91                	je     404290 <lu+0x1180>
  4042ff:	48 8b 5c 24 40       	mov    0x40(%rsp),%rbx
  404304:	4c 29 d3             	sub    %r10,%rbx
  404307:	49 8d 6a 01          	lea    0x1(%r10),%rbp
  40430b:	48 8b 84 24 b0 00 00 	mov    0xb0(%rsp),%rax
  404312:	00 
  404313:	48 0f af e8          	imul   %rax,%rbp
  404317:	48 8b 8c 24 b8 00 00 	mov    0xb8(%rsp),%rcx
  40431e:	00 
  40431f:	48 8d 14 29          	lea    (%rcx,%rbp,1),%rdx
  404323:	4c 01 cd             	add    %r9,%rbp
  404326:	4c 0f af d0          	imul   %rax,%r10
  40432a:	48 8b 44 24 20       	mov    0x20(%rsp),%rax
  40432f:	4a 8d 34 11          	lea    (%rcx,%r10,1),%rsi
  404333:	4d 01 ca             	add    %r9,%r10
  404336:	48 8b 8c 24 c8 00 00 	mov    0xc8(%rsp),%rcx
  40433d:	00 
  40433e:	66 90                	xchg   %ax,%ax
  404340:	f2 42 0f 10 04 11    	movsd  (%rcx,%r10,1),%xmm0
  404346:	f2 41 0f 59 04 fb    	mulsd  (%r11,%rdi,8),%xmm0
  40434c:	f2 0f 10 0c 31       	movsd  (%rcx,%rsi,1),%xmm1
  404351:	f2 0f 5c c8          	subsd  %xmm0,%xmm1
  404355:	f2 0f 11 0c 31       	movsd  %xmm1,(%rcx,%rsi,1)
  40435a:	f2 0f 10 04 29       	movsd  (%rcx,%rbp,1),%xmm0
  40435f:	f2 0f 10 0c 11       	movsd  (%rcx,%rdx,1),%xmm1
  404364:	f2 41 0f 59 04 fb    	mulsd  (%r11,%rdi,8),%xmm0
  40436a:	f2 0f 5c c8          	subsd  %xmm0,%xmm1
  40436e:	f2 0f 11 0c 11       	movsd  %xmm1,(%rcx,%rdx,1)
  404373:	48 83 c3 fe          	add    $0xfffffffffffffffe,%rbx
  404377:	4c 01 e1             	add    %r12,%rcx
  40437a:	48 39 d8             	cmp    %rbx,%rax
  40437d:	75 c1                	jne    404340 <lu+0x1230>
  40437f:	e9 0c ff ff ff       	jmpq   404290 <lu+0x1180>
  404384:	48 03 ac 24 80 00 00 	add    0x80(%rsp),%rbp
  40438b:	00 
  40438c:	48 83 e5 fe          	and    $0xfffffffffffffffe,%rbp
  404390:	48 8b 8c 24 a8 00 00 	mov    0xa8(%rsp),%rcx
  404397:	00 
  404398:	4c 8b 4c 24 78       	mov    0x78(%rsp),%r9
  40439d:	31 f6                	xor    %esi,%esi
  40439f:	eb 29                	jmp    4043ca <lu+0x12ba>
  4043a1:	66 2e 0f 1f 84 00 00 	nopw   %cs:0x0(%rax,%rax,1)
  4043a8:	00 00 00 
  4043ab:	0f 1f 44 00 00       	nopl   0x0(%rax,%rax,1)
  4043b0:	48 8b 84 24 b0 00 00 	mov    0xb0(%rsp),%rax
  4043b7:	00 
  4043b8:	49 01 c1             	add    %rax,%r9
  4043bb:	48 01 c1             	add    %rax,%rcx
  4043be:	4c 89 c6             	mov    %r8,%rsi
  4043c1:	4d 39 e8             	cmp    %r13,%r8
  4043c4:	0f 84 b6 fa ff ff    	je     403e80 <lu+0xd70>
  4043ca:	4c 8d 46 01          	lea    0x1(%rsi),%r8
  4043ce:	4d 39 e8             	cmp    %r13,%r8
  4043d1:	4c 8b 54 24 38       	mov    0x38(%rsp),%r10
  4043d6:	7d d8                	jge    4043b0 <lu+0x12a0>
  4043d8:	4c 89 ca             	mov    %r9,%rdx
  4043db:	4c 89 c7             	mov    %r8,%rdi
  4043de:	eb 11                	jmp    4043f1 <lu+0x12e1>
  4043e0:	48 83 c7 01          	add    $0x1,%rdi
  4043e4:	48 03 94 24 b0 00 00 	add    0xb0(%rsp),%rdx
  4043eb:	00 
  4043ec:	4c 39 ef             	cmp    %r13,%rdi
  4043ef:	74 bf                	je     4043b0 <lu+0x12a0>
  4043f1:	48 89 f8             	mov    %rdi,%rax
  4043f4:	48 0f af 44 24 08    	imul   0x8(%rsp),%rax
  4043fa:	48 01 f0             	add    %rsi,%rax
  4043fd:	f2 41 0f 10 04 c2    	movsd  (%r10,%rax,8),%xmm0
  404403:	31 c0                	xor    %eax,%eax
  404405:	66 2e 0f 1f 84 00 00 	nopw   %cs:0x0(%rax,%rax,1)
  40440c:	00 00 00 
  40440f:	90                   	nop
  404410:	48 89 c3             	mov    %rax,%rbx
  404413:	f2 0f 10 0c c1       	movsd  (%rcx,%rax,8),%xmm1
  404418:	f2 0f 59 c8          	mulsd  %xmm0,%xmm1
  40441c:	f2 0f 10 14 c2       	movsd  (%rdx,%rax,8),%xmm2
  404421:	f2 0f 5c d1          	subsd  %xmm1,%xmm2
  404425:	f2 0f 10 4c c2 08    	movsd  0x8(%rdx,%rax,8),%xmm1
  40442b:	f2 0f 11 14 c2       	movsd  %xmm2,(%rdx,%rax,8)
  404430:	f2 0f 10 54 c1 08    	movsd  0x8(%rcx,%rax,8),%xmm2
  404436:	f2 0f 59 d0          	mulsd  %xmm0,%xmm2
  40443a:	f2 0f 5c ca          	subsd  %xmm2,%xmm1
  40443e:	f2 0f 11 4c c2 08    	movsd  %xmm1,0x8(%rdx,%rax,8)
  404444:	48 83 c0 02          	add    $0x2,%rax
  404448:	48 39 c5             	cmp    %rax,%rbp
  40444b:	75 c3                	jne    404410 <lu+0x1300>
  40444d:	41 f6 c7 01          	test   $0x1,%r15b
  404451:	74 8d                	je     4043e0 <lu+0x12d0>
  404453:	f2 0f 10 4c da 10    	movsd  0x10(%rdx,%rbx,8),%xmm1
  404459:	f2 0f 59 44 d9 10    	mulsd  0x10(%rcx,%rbx,8),%xmm0
  40445f:	f2 0f 5c c8          	subsd  %xmm0,%xmm1
  404463:	f2 0f 11 4c da 10    	movsd  %xmm1,0x10(%rdx,%rbx,8)
  404469:	e9 72 ff ff ff       	jmpq   4043e0 <lu+0x12d0>
  40446e:	66 90                	xchg   %ax,%ax
  404470:	48 8b 05 c1 4c 20 00 	mov    0x204cc1(%rip),%rax        # 609138 <P>
  404477:	48 89 84 24 70 01 00 	mov    %rax,0x170(%rsp)
  40447e:	00 
  40447f:	48 8b 84 24 b0 01 00 	mov    0x1b0(%rsp),%rax
  404486:	00 
  404487:	48 8b 8c 24 d0 00 00 	mov    0xd0(%rsp),%rcx
  40448e:	00 
  40448f:	48 8d 0c c1          	lea    (%rcx,%rax,8),%rcx
  404493:	48 89 8c 24 88 01 00 	mov    %rcx,0x188(%rsp)
  40449a:	00 
  40449b:	48 8b 8c 24 c8 00 00 	mov    0xc8(%rsp),%rcx
  4044a2:	00 
  4044a3:	48 8d 04 c1          	lea    (%rcx,%rax,8),%rax
  4044a7:	48 89 84 24 80 01 00 	mov    %rax,0x180(%rsp)
  4044ae:	00 
  4044af:	48 8b 84 24 a8 01 00 	mov    0x1a8(%rsp),%rax
  4044b6:	00 
  4044b7:	48 8d 04 c1          	lea    (%rcx,%rax,8),%rax
  4044bb:	48 89 84 24 a0 02 00 	mov    %rax,0x2a0(%rsp)
  4044c2:	00 
  4044c3:	48 8b 44 24 20       	mov    0x20(%rsp),%rax
  4044c8:	48 8d 04 c1          	lea    (%rcx,%rax,8),%rax
  4044cc:	48 03 44 24 58       	add    0x58(%rsp),%rax
  4044d1:	48 89 84 24 30 01 00 	mov    %rax,0x130(%rsp)
  4044d8:	00 
  4044d9:	48 8b 84 24 a0 00 00 	mov    0xa0(%rsp),%rax
  4044e0:	00 
  4044e1:	48 8d 04 c1          	lea    (%rcx,%rax,8),%rax
  4044e5:	48 89 44 24 50       	mov    %rax,0x50(%rsp)
  4044ea:	48 8b 84 24 38 01 00 	mov    0x138(%rsp),%rax
  4044f1:	00 
  4044f2:	48 8d 04 c1          	lea    (%rcx,%rax,8),%rax
  4044f6:	48 89 44 24 28       	mov    %rax,0x28(%rsp)
  4044fb:	48 8b 84 24 78 01 00 	mov    0x178(%rsp),%rax
  404502:	00 
  404503:	48 89 84 24 28 01 00 	mov    %rax,0x128(%rsp)
  40450a:	00 
  40450b:	48 8b 8c 24 60 01 00 	mov    0x160(%rsp),%rcx
  404512:	00 
  404513:	31 d2                	xor    %edx,%edx
  404515:	48 8b 9c 24 00 01 00 	mov    0x100(%rsp),%rbx
  40451c:	00 
  40451d:	48 8b b4 24 08 01 00 	mov    0x108(%rsp),%rsi
  404524:	00 
  404525:	48 8b ac 24 18 01 00 	mov    0x118(%rsp),%rbp
  40452c:	00 
  40452d:	48 8b 84 24 f0 00 00 	mov    0xf0(%rsp),%rax
  404534:	00 
  404535:	4c 8b 54 24 38       	mov    0x38(%rsp),%r10
  40453a:	eb 7a                	jmp    4045b6 <lu+0x14a6>
  40453c:	0f 1f 40 00          	nopl   0x0(%rax)
  404540:	48 8b b4 24 98 01 00 	mov    0x198(%rsp),%rsi
  404547:	00 
  404548:	48 83 c6 01          	add    $0x1,%rsi
  40454c:	48 8b 94 24 a0 01 00 	mov    0x1a0(%rsp),%rdx
  404553:	00 
  404554:	48 83 c2 01          	add    $0x1,%rdx
  404558:	48 8b 84 24 28 02 00 	mov    0x228(%rsp),%rax
  40455f:	00 
  404560:	48 01 84 24 88 01 00 	add    %rax,0x188(%rsp)
  404567:	00 
  404568:	48 8b ac 24 18 01 00 	mov    0x118(%rsp),%rbp
  40456f:	00 
  404570:	48 8b 8c 24 38 01 00 	mov    0x138(%rsp),%rcx
  404577:	00 
  404578:	48 01 e9             	add    %rbp,%rcx
  40457b:	48 29 ac 24 28 01 00 	sub    %rbp,0x128(%rsp)
  404582:	00 
  404583:	48 01 84 24 80 01 00 	add    %rax,0x180(%rsp)
  40458a:	00 
  40458b:	48 01 84 24 30 01 00 	add    %rax,0x130(%rsp)
  404592:	00 
  404593:	48 01 44 24 50       	add    %rax,0x50(%rsp)
  404598:	48 01 44 24 28       	add    %rax,0x28(%rsp)
  40459d:	48 8b 9c 24 a0 00 00 	mov    0xa0(%rsp),%rbx
  4045a4:	00 
  4045a5:	4c 39 fb             	cmp    %r15,%rbx
  4045a8:	48 8b 84 24 f0 00 00 	mov    0xf0(%rsp),%rax
  4045af:	00 
  4045b0:	0f 8d 3a 05 00 00    	jge    404af0 <lu+0x19e0>
  4045b6:	49 39 cf             	cmp    %rcx,%r15
  4045b9:	48 89 8c 24 38 01 00 	mov    %rcx,0x138(%rsp)
  4045c0:	00 
  4045c1:	49 0f 4e cf          	cmovle %r15,%rcx
  4045c5:	48 89 4c 24 68       	mov    %rcx,0x68(%rsp)
  4045ca:	48 89 94 24 a0 01 00 	mov    %rdx,0x1a0(%rsp)
  4045d1:	00 
  4045d2:	48 0f af d5          	imul   %rbp,%rdx
  4045d6:	48 8b 8c 24 90 01 00 	mov    0x190(%rsp),%rcx
  4045dd:	00 
  4045de:	49 89 d0             	mov    %rdx,%r8
  4045e1:	48 01 d1             	add    %rdx,%rcx
  4045e4:	4c 39 f9             	cmp    %r15,%rcx
  4045e7:	49 0f 4f cf          	cmovg  %r15,%rcx
  4045eb:	48 89 4c 24 70       	mov    %rcx,0x70(%rsp)
  4045f0:	48 89 b4 24 98 01 00 	mov    %rsi,0x198(%rsp)
  4045f7:	00 
  4045f8:	48 01 f0             	add    %rsi,%rax
  4045fb:	48 99                	cqto   
  4045fd:	48 f7 bc 24 70 01 00 	idivq  0x170(%rsp)
  404604:	00 
  404605:	48 89 5c 24 30       	mov    %rbx,0x30(%rsp)
  40460a:	48 8d 04 2b          	lea    (%rbx,%rbp,1),%rax
  40460e:	48 89 84 24 a0 00 00 	mov    %rax,0xa0(%rsp)
  404615:	00 
  404616:	48 3b 94 24 10 01 00 	cmp    0x110(%rsp),%rdx
  40461d:	00 
  40461e:	0f 85 1c ff ff ff    	jne    404540 <lu+0x1430>
  404624:	48 8b 84 24 a0 00 00 	mov    0xa0(%rsp),%rax
  40462b:	00 
  40462c:	4c 39 f8             	cmp    %r15,%rax
  40462f:	49 0f 4f c7          	cmovg  %r15,%rax
  404633:	48 2b 44 24 30       	sub    0x30(%rsp),%rax
  404638:	48 89 84 24 e0 00 00 	mov    %rax,0xe0(%rsp)
  40463f:	00 
  404640:	0f 8e fa fe ff ff    	jle    404540 <lu+0x1430>
  404646:	48 8b 84 24 28 01 00 	mov    0x128(%rsp),%rax
  40464d:	00 
  40464e:	48 8b 54 24 68       	mov    0x68(%rsp),%rdx
  404653:	48 8d 34 02          	lea    (%rdx,%rax,1),%rsi
  404657:	48 8b 4c 24 30       	mov    0x30(%rsp),%rcx
  40465c:	8d 04 0a             	lea    (%rdx,%rcx,1),%eax
  40465f:	0f b6 c0             	movzbl %al,%eax
  404662:	83 e0 01             	and    $0x1,%eax
  404665:	48 29 c6             	sub    %rax,%rsi
  404668:	48 89 b4 24 d0 00 00 	mov    %rsi,0xd0(%rsp)
  40466f:	00 
  404670:	48 8b 84 24 98 00 00 	mov    0x98(%rsp),%rax
  404677:	00 
  404678:	4c 01 c0             	add    %r8,%rax
  40467b:	48 8b 54 24 70       	mov    0x70(%rsp),%rdx
  404680:	48 29 c2             	sub    %rax,%rdx
  404683:	48 89 54 24 58       	mov    %rdx,0x58(%rsp)
  404688:	48 89 c8             	mov    %rcx,%rax
  40468b:	49 0f af c7          	imul   %r15,%rax
  40468f:	48 03 44 24 20       	add    0x20(%rsp),%rax
  404694:	48 8b 8c 24 c8 00 00 	mov    0xc8(%rsp),%rcx
  40469b:	00 
  40469c:	4c 8d 0c c1          	lea    (%rcx,%rax,8),%r9
  4046a0:	4c 03 84 24 58 01 00 	add    0x158(%rsp),%r8
  4046a7:	00 
  4046a8:	4c 89 44 24 60       	mov    %r8,0x60(%rsp)
  4046ad:	48 8b b4 24 30 01 00 	mov    0x130(%rsp),%rsi
  4046b4:	00 
  4046b5:	8b 84 24 48 01 00 00 	mov    0x148(%rsp),%eax
  4046bc:	89 c3                	mov    %eax,%ebx
  4046be:	48 8b ac 24 50 01 00 	mov    0x150(%rsp),%rbp
  4046c5:	00 
  4046c6:	4c 8b b4 24 a0 02 00 	mov    0x2a0(%rsp),%r14
  4046cd:	00 
  4046ce:	48 8b 84 24 80 01 00 	mov    0x180(%rsp),%rax
  4046d5:	00 
  4046d6:	48 89 44 24 10       	mov    %rax,0x10(%rsp)
  4046db:	48 8b 84 24 88 01 00 	mov    0x188(%rsp),%rax
  4046e2:	00 
  4046e3:	48 89 44 24 48       	mov    %rax,0x48(%rsp)
  4046e8:	31 c0                	xor    %eax,%eax
  4046ea:	4c 89 8c 24 c0 00 00 	mov    %r9,0xc0(%rsp)
  4046f1:	00 
  4046f2:	eb 65                	jmp    404759 <lu+0x1649>
  4046f4:	66 2e 0f 1f 84 00 00 	nopw   %cs:0x0(%rax,%rax,1)
  4046fb:	00 00 00 
  4046fe:	66 90                	xchg   %ax,%ax
  404700:	48 83 44 24 10 08    	addq   $0x8,0x10(%rsp)
  404706:	48 83 44 24 48 08    	addq   $0x8,0x48(%rsp)
  40470c:	4c 03 b4 24 20 02 00 	add    0x220(%rsp),%r14
  404713:	00 
  404714:	48 8b 6c 24 78       	mov    0x78(%rsp),%rbp
  404719:	48 83 c5 ff          	add    $0xffffffffffffffff,%rbp
  40471d:	8a 9c 24 80 00 00 00 	mov    0x80(%rsp),%bl
  404724:	80 c3 01             	add    $0x1,%bl
  404727:	48 8b b4 24 b8 00 00 	mov    0xb8(%rsp),%rsi
  40472e:	00 
  40472f:	48 83 c6 08          	add    $0x8,%rsi
  404733:	4c 8b ac 24 d8 00 00 	mov    0xd8(%rsp),%r13
  40473a:	00 
  40473b:	48 8b 84 24 a8 00 00 	mov    0xa8(%rsp),%rax
  404742:	00 
  404743:	4c 39 e8             	cmp    %r13,%rax
  404746:	4c 8b 7c 24 08       	mov    0x8(%rsp),%r15
  40474b:	4c 8b a4 24 e8 00 00 	mov    0xe8(%rsp),%r12
  404752:	00 
  404753:	0f 84 e7 fd ff ff    	je     404540 <lu+0x1430>
  404759:	49 89 c0             	mov    %rax,%r8
  40475c:	49 0f af c7          	imul   %r15,%rax
  404760:	4c 89 ea             	mov    %r13,%rdx
  404763:	4e 8d 2c 00          	lea    (%rax,%r8,1),%r13
  404767:	49 8d 48 01          	lea    0x1(%r8),%rcx
  40476b:	48 89 8c 24 a8 00 00 	mov    %rcx,0xa8(%rsp)
  404772:	00 
  404773:	4c 89 c1             	mov    %r8,%rcx
  404776:	48 f7 d1             	not    %rcx
  404779:	48 01 d1             	add    %rdx,%rcx
  40477c:	48 85 c9             	test   %rcx,%rcx
  40477f:	48 89 b4 24 b8 00 00 	mov    %rsi,0xb8(%rsp)
  404786:	00 
  404787:	88 9c 24 80 00 00 00 	mov    %bl,0x80(%rsp)
  40478e:	48 89 6c 24 78       	mov    %rbp,0x78(%rsp)
  404793:	0f 8e 07 01 00 00    	jle    4048a0 <lu+0x1790>
  404799:	48 8b bc 24 f8 00 00 	mov    0xf8(%rsp),%rdi
  4047a0:	00 
  4047a1:	4c 29 c7             	sub    %r8,%rdi
  4047a4:	4c 39 84 24 20 01 00 	cmp    %r8,0x120(%rsp)
  4047ab:	00 
  4047ac:	48 89 7c 24 18       	mov    %rdi,0x18(%rsp)
  4047b1:	0f 85 09 01 00 00    	jne    4048c0 <lu+0x17b0>
  4047b7:	4d 8d 3c 00          	lea    (%r8,%rax,1),%r15
  4047bb:	49 83 c7 01          	add    $0x1,%r15
  4047bf:	31 ed                	xor    %ebp,%ebp
  4047c1:	48 8b 5c 24 68       	mov    0x68(%rsp),%rbx
  4047c6:	eb 1a                	jmp    4047e2 <lu+0x16d2>
  4047c8:	0f 1f 84 00 00 00 00 	nopl   0x0(%rax,%rax,1)
  4047cf:	00 
  4047d0:	48 83 c3 fe          	add    $0xfffffffffffffffe,%rbx
  4047d4:	48 01 c5             	add    %rax,%rbp
  4047d7:	48 39 5c 24 30       	cmp    %rbx,0x30(%rsp)
  4047dc:	0f 84 1e ff ff ff    	je     404700 <lu+0x15f0>
  4047e2:	48 c7 c0 f8 ff ff ff 	mov    $0xfffffffffffffff8,%rax
  4047e9:	64 48 8b 08          	mov    %fs:(%rax),%rcx
  4047ed:	48 c7 c0 b0 ff ff ff 	mov    $0xffffffffffffffb0,%rax
  4047f4:	64 48 8b 30          	mov    %fs:(%rax),%rsi
  4047f8:	0f 31                	rdtsc  
  4047fa:	48 c1 e2 20          	shl    $0x20,%rdx
  4047fe:	48 09 c2             	or     %rax,%rdx
  404801:	48 29 ca             	sub    %rcx,%rdx
  404804:	48 39 f2             	cmp    %rsi,%rdx
  404807:	72 19                	jb     404822 <lu+0x1712>
  404809:	31 c0                	xor    %eax,%eax
  40480b:	e8 20 29 00 00       	callq  407130 <concord_rdtsc_func>
  404810:	48 8b 7c 24 18       	mov    0x18(%rsp),%rdi
  404815:	4c 8b 8c 24 c0 00 00 	mov    0xc0(%rsp),%r9
  40481c:	00 
  40481d:	4c 8b 54 24 38       	mov    0x38(%rsp),%r10
  404822:	48 8b 44 24 28       	mov    0x28(%rsp),%rax
  404827:	f2 0f 10 04 28       	movsd  (%rax,%rbp,1),%xmm0
  40482c:	f2 43 0f 5e 04 ea    	divsd  (%r10,%r13,8),%xmm0
  404832:	f2 0f 11 04 28       	movsd  %xmm0,(%rax,%rbp,1)
  404837:	40 f6 c7 01          	test   $0x1,%dil
  40483b:	48 8b 84 24 e8 00 00 	mov    0xe8(%rsp),%rax
  404842:	00 
  404843:	74 1b                	je     404860 <lu+0x1750>
  404845:	48 8b 4c 24 10       	mov    0x10(%rsp),%rcx
  40484a:	f2 0f 10 4c 29 08    	movsd  0x8(%rcx,%rbp,1),%xmm1
  404850:	f2 43 0f 59 04 fa    	mulsd  (%r10,%r15,8),%xmm0
  404856:	f2 0f 5c c8          	subsd  %xmm0,%xmm1
  40485a:	f2 0f 11 4c 29 08    	movsd  %xmm1,0x8(%rcx,%rbp,1)
  404860:	48 8b 4c 24 50       	mov    0x50(%rsp),%rcx
  404865:	f2 0f 10 04 29       	movsd  (%rcx,%rbp,1),%xmm0
  40486a:	f2 43 0f 5e 04 ea    	divsd  (%r10,%r13,8),%xmm0
  404870:	f2 0f 11 04 29       	movsd  %xmm0,(%rcx,%rbp,1)
  404875:	40 f6 c7 01          	test   $0x1,%dil
  404879:	0f 84 51 ff ff ff    	je     4047d0 <lu+0x16c0>
  40487f:	48 8b 4c 24 48       	mov    0x48(%rsp),%rcx
  404884:	f2 0f 10 4c 29 08    	movsd  0x8(%rcx,%rbp,1),%xmm1
  40488a:	f2 43 0f 59 04 fa    	mulsd  (%r10,%r15,8),%xmm0
  404890:	f2 0f 5c c8          	subsd  %xmm0,%xmm1
  404894:	f2 0f 11 4c 29 08    	movsd  %xmm1,0x8(%rcx,%rbp,1)
  40489a:	e9 31 ff ff ff       	jmpq   4047d0 <lu+0x16c0>
  40489f:	90                   	nop
  4048a0:	48 8b 44 24 70       	mov    0x70(%rsp),%rax
  4048a5:	48 3b 44 24 60       	cmp    0x60(%rsp),%rax
  4048aa:	0f 85 bb 01 00 00    	jne    404a6b <lu+0x195b>
  4048b0:	31 c0                	xor    %eax,%eax
  4048b2:	e9 07 02 00 00       	jmpq   404abe <lu+0x19ae>
  4048b7:	66 0f 1f 84 00 00 00 	nopw   0x0(%rax,%rax,1)
  4048be:	00 00 
  4048c0:	0f b6 c3             	movzbl %bl,%eax
  4048c3:	83 e0 01             	and    $0x1,%eax
  4048c6:	48 89 eb             	mov    %rbp,%rbx
  4048c9:	48 29 c3             	sub    %rax,%rbx
  4048cc:	49 89 f7             	mov    %rsi,%r15
  4048cf:	4c 8b 64 24 10       	mov    0x10(%rsp),%r12
  4048d4:	31 ed                	xor    %ebp,%ebp
  4048d6:	4c 89 6c 24 40       	mov    %r13,0x40(%rsp)
  4048db:	eb 23                	jmp    404900 <lu+0x17f0>
  4048dd:	0f 1f 00             	nopl   (%rax)
  4048e0:	48 83 c5 02          	add    $0x2,%rbp
  4048e4:	48 8b 84 24 e8 00 00 	mov    0xe8(%rsp),%rax
  4048eb:	00 
  4048ec:	49 01 c4             	add    %rax,%r12
  4048ef:	49 01 c7             	add    %rax,%r15
  4048f2:	48 3b ac 24 e0 00 00 	cmp    0xe0(%rsp),%rbp
  4048f9:	00 
  4048fa:	0f 84 00 fe ff ff    	je     404700 <lu+0x15f0>
  404900:	48 c7 c0 f8 ff ff ff 	mov    $0xfffffffffffffff8,%rax
  404907:	64 48 8b 08          	mov    %fs:(%rax),%rcx
  40490b:	48 c7 c0 b0 ff ff ff 	mov    $0xffffffffffffffb0,%rax
  404912:	64 48 8b 30          	mov    %fs:(%rax),%rsi
  404916:	0f 31                	rdtsc  
  404918:	48 c1 e2 20          	shl    $0x20,%rdx
  40491c:	48 09 c2             	or     %rax,%rdx
  40491f:	48 29 ca             	sub    %rcx,%rdx
  404922:	48 39 f2             	cmp    %rsi,%rdx
  404925:	72 24                	jb     40494b <lu+0x183b>
  404927:	31 c0                	xor    %eax,%eax
  404929:	4d 89 c5             	mov    %r8,%r13
  40492c:	e8 ff 27 00 00       	callq  407130 <concord_rdtsc_func>
  404931:	4d 89 e8             	mov    %r13,%r8
  404934:	4c 8b 6c 24 40       	mov    0x40(%rsp),%r13
  404939:	48 8b 7c 24 18       	mov    0x18(%rsp),%rdi
  40493e:	4c 8b 8c 24 c0 00 00 	mov    0xc0(%rsp),%r9
  404945:	00 
  404946:	4c 8b 54 24 38       	mov    0x38(%rsp),%r10
  40494b:	48 89 e8             	mov    %rbp,%rax
  40494e:	48 0f af 44 24 08    	imul   0x8(%rsp),%rax
  404954:	4c 01 c0             	add    %r8,%rax
  404957:	f2 41 0f 10 04 c1    	movsd  (%r9,%rax,8),%xmm0
  40495d:	f2 43 0f 5e 04 ea    	divsd  (%r10,%r13,8),%xmm0
  404963:	f2 41 0f 11 04 c1    	movsd  %xmm0,(%r9,%rax,8)
  404969:	b9 01 00 00 00       	mov    $0x1,%ecx
  40496e:	66 90                	xchg   %ax,%ax
  404970:	48 89 c8             	mov    %rcx,%rax
  404973:	f2 41 0f 10 0c ce    	movsd  (%r14,%rcx,8),%xmm1
  404979:	f2 0f 59 c8          	mulsd  %xmm0,%xmm1
  40497d:	f2 41 0f 10 14 cc    	movsd  (%r12,%rcx,8),%xmm2
  404983:	f2 0f 5c d1          	subsd  %xmm1,%xmm2
  404987:	f2 41 0f 10 4c cc 08 	movsd  0x8(%r12,%rcx,8),%xmm1
  40498e:	f2 41 0f 11 14 cc    	movsd  %xmm2,(%r12,%rcx,8)
  404994:	f2 41 0f 10 54 ce 08 	movsd  0x8(%r14,%rcx,8),%xmm2
  40499b:	f2 0f 59 d0          	mulsd  %xmm0,%xmm2
  40499f:	f2 0f 5c ca          	subsd  %xmm2,%xmm1
  4049a3:	f2 41 0f 11 4c cc 08 	movsd  %xmm1,0x8(%r12,%rcx,8)
  4049aa:	48 83 c1 02          	add    $0x2,%rcx
  4049ae:	48 39 cb             	cmp    %rcx,%rbx
  4049b1:	75 bd                	jne    404970 <lu+0x1860>
  4049b3:	40 f6 c7 01          	test   $0x1,%dil
  4049b7:	74 19                	je     4049d2 <lu+0x18c2>
  4049b9:	f2 41 0f 10 4c c4 10 	movsd  0x10(%r12,%rax,8),%xmm1
  4049c0:	f2 41 0f 59 44 c6 10 	mulsd  0x10(%r14,%rax,8),%xmm0
  4049c7:	f2 0f 5c c8          	subsd  %xmm0,%xmm1
  4049cb:	f2 41 0f 11 4c c4 10 	movsd  %xmm1,0x10(%r12,%rax,8)
  4049d2:	48 89 e8             	mov    %rbp,%rax
  4049d5:	48 83 c8 01          	or     $0x1,%rax
  4049d9:	48 0f af 44 24 08    	imul   0x8(%rsp),%rax
  4049df:	4c 01 c0             	add    %r8,%rax
  4049e2:	f2 41 0f 10 04 c1    	movsd  (%r9,%rax,8),%xmm0
  4049e8:	f2 43 0f 5e 04 ea    	divsd  (%r10,%r13,8),%xmm0
  4049ee:	f2 41 0f 11 04 c1    	movsd  %xmm0,(%r9,%rax,8)
  4049f4:	b9 01 00 00 00       	mov    $0x1,%ecx
  4049f9:	0f 1f 80 00 00 00 00 	nopl   0x0(%rax)
  404a00:	48 89 c8             	mov    %rcx,%rax
  404a03:	f2 41 0f 10 0c ce    	movsd  (%r14,%rcx,8),%xmm1
  404a09:	f2 0f 59 c8          	mulsd  %xmm0,%xmm1
  404a0d:	f2 41 0f 10 14 cf    	movsd  (%r15,%rcx,8),%xmm2
  404a13:	f2 0f 5c d1          	subsd  %xmm1,%xmm2
  404a17:	f2 41 0f 10 4c cf 08 	movsd  0x8(%r15,%rcx,8),%xmm1
  404a1e:	f2 41 0f 11 14 cf    	movsd  %xmm2,(%r15,%rcx,8)
  404a24:	f2 41 0f 10 54 ce 08 	movsd  0x8(%r14,%rcx,8),%xmm2
  404a2b:	f2 0f 59 d0          	mulsd  %xmm0,%xmm2
  404a2f:	f2 0f 5c ca          	subsd  %xmm2,%xmm1
  404a33:	f2 41 0f 11 4c cf 08 	movsd  %xmm1,0x8(%r15,%rcx,8)
  404a3a:	48 83 c1 02          	add    $0x2,%rcx
  404a3e:	48 39 cb             	cmp    %rcx,%rbx
  404a41:	75 bd                	jne    404a00 <lu+0x18f0>
  404a43:	40 f6 c7 01          	test   $0x1,%dil
  404a47:	0f 84 93 fe ff ff    	je     4048e0 <lu+0x17d0>
  404a4d:	f2 41 0f 10 4c c7 10 	movsd  0x10(%r15,%rax,8),%xmm1
  404a54:	f2 41 0f 59 44 c6 10 	mulsd  0x10(%r14,%rax,8),%xmm0
  404a5b:	f2 0f 5c c8          	subsd  %xmm0,%xmm1
  404a5f:	f2 41 0f 11 4c c7 10 	movsd  %xmm1,0x10(%r15,%rax,8)
  404a66:	e9 75 fe ff ff       	jmpq   4048e0 <lu+0x17d0>
  404a6b:	31 c9                	xor    %ecx,%ecx
  404a6d:	31 c0                	xor    %eax,%eax
  404a6f:	48 8b 94 24 d0 00 00 	mov    0xd0(%rsp),%rdx
  404a76:	00 
  404a77:	48 8b 74 24 10       	mov    0x10(%rsp),%rsi
  404a7c:	48 8b 6c 24 48       	mov    0x48(%rsp),%rbp
  404a81:	66 2e 0f 1f 84 00 00 	nopw   %cs:0x0(%rax,%rax,1)
  404a88:	00 00 00 
  404a8b:	0f 1f 44 00 00       	nopl   0x0(%rax,%rax,1)
  404a90:	f2 0f 10 04 0e       	movsd  (%rsi,%rcx,1),%xmm0
  404a95:	f2 43 0f 5e 04 ea    	divsd  (%r10,%r13,8),%xmm0
  404a9b:	f2 0f 11 04 0e       	movsd  %xmm0,(%rsi,%rcx,1)
  404aa0:	f2 0f 10 44 0d 00    	movsd  0x0(%rbp,%rcx,1),%xmm0
  404aa6:	f2 43 0f 5e 04 ea    	divsd  (%r10,%r13,8),%xmm0
  404aac:	f2 0f 11 44 0d 00    	movsd  %xmm0,0x0(%rbp,%rcx,1)
  404ab2:	48 83 c0 02          	add    $0x2,%rax
  404ab6:	4c 01 e1             	add    %r12,%rcx
  404ab9:	48 39 c2             	cmp    %rax,%rdx
  404abc:	75 d2                	jne    404a90 <lu+0x1980>
  404abe:	f6 44 24 58 01       	testb  $0x1,0x58(%rsp)
  404ac3:	0f 84 37 fc ff ff    	je     404700 <lu+0x15f0>
  404ac9:	48 0f af 44 24 08    	imul   0x8(%rsp),%rax
  404acf:	4c 01 c0             	add    %r8,%rax
  404ad2:	f2 41 0f 10 04 c1    	movsd  (%r9,%rax,8),%xmm0
  404ad8:	f2 43 0f 5e 04 ea    	divsd  (%r10,%r13,8),%xmm0
  404ade:	f2 41 0f 11 04 c1    	movsd  %xmm0,(%r9,%rax,8)
  404ae4:	e9 17 fc ff ff       	jmpq   404700 <lu+0x15f0>
  404ae9:	0f 1f 80 00 00 00 00 	nopl   0x0(%rax)
  404af0:	44 8a 74 24 07       	mov    0x7(%rsp),%r14b
  404af5:	45 84 f6             	test   %r14b,%r14b
  404af8:	74 2b                	je     404b25 <lu+0x1a15>
  404afa:	48 8d bc 24 88 00 00 	lea    0x88(%rsp),%rdi
  404b01:	00 
  404b02:	31 f6                	xor    %esi,%esi
  404b04:	e8 27 c4 ff ff       	callq  400f30 <gettimeofday@plt>
  404b09:	48 69 84 24 88 00 00 	imul   $0xf4240,0x88(%rsp),%rax
  404b10:	00 40 42 0f 00 
  404b15:	48 03 84 24 90 00 00 	add    0x90(%rsp),%rax
  404b1c:	00 
  404b1d:	48 89 84 24 68 02 00 	mov    %rax,0x268(%rsp)
  404b24:	00 
  404b25:	48 8b 3d ac 46 20 00 	mov    0x2046ac(%rip),%rdi        # 6091d8 <Global>
  404b2c:	48 83 c7 50          	add    $0x50,%rdi
  404b30:	e8 2b c5 ff ff       	callq  401060 <pthread_mutex_lock@plt>
  404b35:	85 c0                	test   %eax,%eax
  404b37:	0f 85 ed 08 00 00    	jne    40542a <lu+0x231a>
  404b3d:	48 8b 3d 94 46 20 00 	mov    0x204694(%rip),%rdi        # 6091d8 <Global>
  404b44:	48 8b 87 a8 00 00 00 	mov    0xa8(%rdi),%rax
  404b4b:	48 8b 9f b0 00 00 00 	mov    0xb0(%rdi),%rbx
  404b52:	48 83 c0 01          	add    $0x1,%rax
  404b56:	48 89 87 a8 00 00 00 	mov    %rax,0xa8(%rdi)
  404b5d:	48 3b 05 d4 45 20 00 	cmp    0x2045d4(%rip),%rax        # 609138 <P>
  404b64:	75 2a                	jne    404b90 <lu+0x1a80>
  404b66:	31 c0                	xor    %eax,%eax
  404b68:	48 85 db             	test   %rbx,%rbx
  404b6b:	0f 94 c0             	sete   %al
  404b6e:	48 89 87 b0 00 00 00 	mov    %rax,0xb0(%rdi)
  404b75:	48 c7 87 a8 00 00 00 	movq   $0x0,0xa8(%rdi)
  404b7c:	00 00 00 00 
  404b80:	48 83 c7 78          	add    $0x78,%rdi
  404b84:	e8 17 c3 ff ff       	callq  400ea0 <pthread_cond_broadcast@plt>
  404b89:	eb 5a                	jmp    404be5 <lu+0x1ad5>
  404b8b:	0f 1f 44 00 00       	nopl   0x0(%rax,%rax,1)
  404b90:	bf 01 00 00 00       	mov    $0x1,%edi
  404b95:	48 8d b4 24 88 00 00 	lea    0x88(%rsp),%rsi
  404b9c:	00 
  404b9d:	e8 4e c3 ff ff       	callq  400ef0 <pthread_setcancelstate@plt>
  404ba2:	66 2e 0f 1f 84 00 00 	nopw   %cs:0x0(%rax,%rax,1)
  404ba9:	00 00 00 
  404bac:	0f 1f 40 00          	nopl   0x0(%rax)
  404bb0:	48 8b 35 21 46 20 00 	mov    0x204621(%rip),%rsi        # 6091d8 <Global>
  404bb7:	48 3b 9e b0 00 00 00 	cmp    0xb0(%rsi),%rbx
  404bbe:	75 11                	jne    404bd1 <lu+0x1ac1>
  404bc0:	48 8d 7e 78          	lea    0x78(%rsi),%rdi
  404bc4:	48 83 c6 50          	add    $0x50,%rsi
  404bc8:	e8 03 c3 ff ff       	callq  400ed0 <pthread_cond_wait@plt>
  404bcd:	85 c0                	test   %eax,%eax
  404bcf:	74 df                	je     404bb0 <lu+0x1aa0>
  404bd1:	8b bc 24 88 00 00 00 	mov    0x88(%rsp),%edi
  404bd8:	48 8d b4 24 c0 02 00 	lea    0x2c0(%rsp),%rsi
  404bdf:	00 
  404be0:	e8 0b c3 ff ff       	callq  400ef0 <pthread_setcancelstate@plt>
  404be5:	48 8b 3d ec 45 20 00 	mov    0x2045ec(%rip),%rdi        # 6091d8 <Global>
  404bec:	48 83 c7 50          	add    $0x50,%rdi
  404bf0:	e8 ab c3 ff ff       	callq  400fa0 <pthread_mutex_unlock@plt>
  404bf5:	45 84 f6             	test   %r14b,%r14b
  404bf8:	74 2b                	je     404c25 <lu+0x1b15>
  404bfa:	48 8d bc 24 88 00 00 	lea    0x88(%rsp),%rdi
  404c01:	00 
  404c02:	31 f6                	xor    %esi,%esi
  404c04:	e8 27 c3 ff ff       	callq  400f30 <gettimeofday@plt>
  404c09:	48 69 84 24 88 00 00 	imul   $0xf4240,0x88(%rsp),%rax
  404c10:	00 40 42 0f 00 
  404c15:	48 03 84 24 90 00 00 	add    0x90(%rsp),%rax
  404c1c:	00 
  404c1d:	48 89 84 24 58 02 00 	mov    %rax,0x258(%rsp)
  404c24:	00 
  404c25:	4c 39 bc 24 b8 01 00 	cmp    %r15,0x1b8(%rsp)
  404c2c:	00 
  404c2d:	0f 8d cd 06 00 00    	jge    405300 <lu+0x21f0>
  404c33:	48 8b 35 ae 47 20 00 	mov    0x2047ae(%rip),%rsi        # 6093e8 <a>
  404c3a:	48 8b 05 f7 44 20 00 	mov    0x2044f7(%rip),%rax        # 609138 <P>
  404c41:	48 89 84 24 f0 00 00 	mov    %rax,0xf0(%rsp)
  404c48:	00 
  404c49:	48 8b 8c 24 00 01 00 	mov    0x100(%rsp),%rcx
  404c50:	00 
  404c51:	48 89 c8             	mov    %rcx,%rax
  404c54:	48 2b 44 24 20       	sub    0x20(%rsp),%rax
  404c59:	48 89 44 24 78       	mov    %rax,0x78(%rsp)
  404c5e:	48 8b 84 24 98 00 00 	mov    0x98(%rsp),%rax
  404c65:	00 
  404c66:	48 83 c0 01          	add    $0x1,%rax
  404c6a:	48 89 84 24 58 01 00 	mov    %rax,0x158(%rsp)
  404c71:	00 
  404c72:	48 8b 94 24 00 02 00 	mov    0x200(%rsp),%rdx
  404c79:	00 
  404c7a:	48 8d 04 d6          	lea    (%rsi,%rdx,8),%rax
  404c7e:	48 89 84 24 30 01 00 	mov    %rax,0x130(%rsp)
  404c85:	00 
  404c86:	48 8b 84 24 f8 01 00 	mov    0x1f8(%rsp),%rax
  404c8d:	00 
  404c8e:	48 8d 04 c6          	lea    (%rsi,%rax,8),%rax
  404c92:	48 89 84 24 a0 01 00 	mov    %rax,0x1a0(%rsp)
  404c99:	00 
  404c9a:	48 8b 84 24 38 02 00 	mov    0x238(%rsp),%rax
  404ca1:	00 
  404ca2:	48 8d 04 c6          	lea    (%rsi,%rax,8),%rax
  404ca6:	48 8d 04 d0          	lea    (%rax,%rdx,8),%rax
  404caa:	48 89 84 24 28 01 00 	mov    %rax,0x128(%rsp)
  404cb1:	00 
  404cb2:	4a 8d 04 fe          	lea    (%rsi,%r15,8),%rax
  404cb6:	48 8d 14 d0          	lea    (%rax,%rdx,8),%rdx
  404cba:	48 89 94 24 70 01 00 	mov    %rdx,0x170(%rsp)
  404cc1:	00 
  404cc2:	48 8b 94 24 b0 01 00 	mov    0x1b0(%rsp),%rdx
  404cc9:	00 
  404cca:	48 8d 04 d0          	lea    (%rax,%rdx,8),%rax
  404cce:	48 89 84 24 50 01 00 	mov    %rax,0x150(%rsp)
  404cd5:	00 
  404cd6:	48 89 b4 24 98 01 00 	mov    %rsi,0x198(%rsp)
  404cdd:	00 
  404cde:	48 8d 04 d6          	lea    (%rsi,%rdx,8),%rax
  404ce2:	48 89 84 24 48 01 00 	mov    %rax,0x148(%rsp)
  404ce9:	00 
  404cea:	48 8b 94 24 60 01 00 	mov    0x160(%rsp),%rdx
  404cf1:	00 
  404cf2:	31 f6                	xor    %esi,%esi
  404cf4:	48 89 cf             	mov    %rcx,%rdi
  404cf7:	48 8b 84 24 08 01 00 	mov    0x108(%rsp),%rax
  404cfe:	00 
  404cff:	48 89 84 24 a0 00 00 	mov    %rax,0xa0(%rsp)
  404d06:	00 
  404d07:	eb 6b                	jmp    404d74 <lu+0x1c64>
  404d09:	0f 1f 80 00 00 00 00 	nopl   0x0(%rax)
  404d10:	48 83 84 24 a0 00 00 	addq   $0x1,0xa0(%rsp)
  404d17:	00 01 
  404d19:	48 8b b4 24 88 01 00 	mov    0x188(%rsp),%rsi
  404d20:	00 
  404d21:	48 83 c6 01          	add    $0x1,%rsi
  404d25:	48 8b 84 24 b0 02 00 	mov    0x2b0(%rsp),%rax
  404d2c:	00 
  404d2d:	48 01 84 24 30 01 00 	add    %rax,0x130(%rsp)
  404d34:	00 
  404d35:	48 01 84 24 a0 01 00 	add    %rax,0x1a0(%rsp)
  404d3c:	00 
  404d3d:	48 8b 94 24 c8 00 00 	mov    0xc8(%rsp),%rdx
  404d44:	00 
  404d45:	48 01 ea             	add    %rbp,%rdx
  404d48:	48 29 ac 24 78 01 00 	sub    %rbp,0x178(%rsp)
  404d4f:	00 
  404d50:	48 01 84 24 28 01 00 	add    %rax,0x128(%rsp)
  404d57:	00 
  404d58:	48 01 84 24 70 01 00 	add    %rax,0x170(%rsp)
  404d5f:	00 
  404d60:	48 8b 84 24 80 01 00 	mov    0x180(%rsp),%rax
  404d67:	00 
  404d68:	48 89 c7             	mov    %rax,%rdi
  404d6b:	4c 39 f8             	cmp    %r15,%rax
  404d6e:	0f 8d 8c 05 00 00    	jge    405300 <lu+0x21f0>
  404d74:	49 39 d7             	cmp    %rdx,%r15
  404d77:	48 89 94 24 c8 00 00 	mov    %rdx,0xc8(%rsp)
  404d7e:	00 
  404d7f:	48 89 d0             	mov    %rdx,%rax
  404d82:	49 0f 4e c7          	cmovle %r15,%rax
  404d86:	48 89 b4 24 88 01 00 	mov    %rsi,0x188(%rsp)
  404d8d:	00 
  404d8e:	48 0f af f5          	imul   %rbp,%rsi
  404d92:	48 8b 8c 24 90 01 00 	mov    0x190(%rsp),%rcx
  404d99:	00 
  404d9a:	48 01 f1             	add    %rsi,%rcx
  404d9d:	4c 39 f9             	cmp    %r15,%rcx
  404da0:	49 0f 4f cf          	cmovg  %r15,%rcx
  404da4:	48 89 8c 24 80 00 00 	mov    %rcx,0x80(%rsp)
  404dab:	00 
  404dac:	48 89 bc 24 d0 00 00 	mov    %rdi,0xd0(%rsp)
  404db3:	00 
  404db4:	48 8d 0c 2f          	lea    (%rdi,%rbp,1),%rcx
  404db8:	4c 39 f9             	cmp    %r15,%rcx
  404dbb:	48 89 8c 24 80 01 00 	mov    %rcx,0x180(%rsp)
  404dc2:	00 
  404dc3:	49 0f 4f cf          	cmovg  %r15,%rcx
  404dc7:	48 89 8c 24 38 01 00 	mov    %rcx,0x138(%rsp)
  404dce:	00 
  404dcf:	48 83 7c 24 78 00    	cmpq   $0x0,0x78(%rsp)
  404dd5:	0f 8e 35 ff ff ff    	jle    404d10 <lu+0x1c00>
  404ddb:	48 89 f2             	mov    %rsi,%rdx
  404dde:	48 8b 8c 24 78 01 00 	mov    0x178(%rsp),%rcx
  404de5:	00 
  404de6:	4c 8d 2c 08          	lea    (%rax,%rcx,1),%r13
  404dea:	48 8b 8c 24 d0 00 00 	mov    0xd0(%rsp),%rcx
  404df1:	00 
  404df2:	01 c8                	add    %ecx,%eax
  404df4:	0f b6 c0             	movzbl %al,%eax
  404df7:	83 e0 01             	and    $0x1,%eax
  404dfa:	49 29 c5             	sub    %rax,%r13
  404dfd:	48 8b 84 24 98 00 00 	mov    0x98(%rsp),%rax
  404e04:	00 
  404e05:	48 01 f0             	add    %rsi,%rax
  404e08:	48 8b b4 24 80 00 00 	mov    0x80(%rsp),%rsi
  404e0f:	00 
  404e10:	48 29 c6             	sub    %rax,%rsi
  404e13:	48 89 74 24 18       	mov    %rsi,0x18(%rsp)
  404e18:	48 8b 84 24 68 01 00 	mov    0x168(%rsp),%rax
  404e1f:	00 
  404e20:	48 01 c8             	add    %rcx,%rax
  404e23:	48 8b 8c 24 98 01 00 	mov    0x198(%rsp),%rcx
  404e2a:	00 
  404e2b:	48 8d 04 c1          	lea    (%rcx,%rax,8),%rax
  404e2f:	48 89 84 24 b8 00 00 	mov    %rax,0xb8(%rsp)
  404e36:	00 
  404e37:	48 03 94 24 58 01 00 	add    0x158(%rsp),%rdx
  404e3e:	00 
  404e3f:	48 89 94 24 a8 00 00 	mov    %rdx,0xa8(%rsp)
  404e46:	00 
  404e47:	48 8b 84 24 48 01 00 	mov    0x148(%rsp),%rax
  404e4e:	00 
  404e4f:	48 89 44 24 60       	mov    %rax,0x60(%rsp)
  404e54:	48 8b 84 24 50 01 00 	mov    0x150(%rsp),%rax
  404e5b:	00 
  404e5c:	48 89 44 24 58       	mov    %rax,0x58(%rsp)
  404e61:	48 8b 84 24 70 01 00 	mov    0x170(%rsp),%rax
  404e68:	00 
  404e69:	48 89 44 24 40       	mov    %rax,0x40(%rsp)
  404e6e:	48 8b 8c 24 60 01 00 	mov    0x160(%rsp),%rcx
  404e75:	00 
  404e76:	48 8b 84 24 28 01 00 	mov    0x128(%rsp),%rax
  404e7d:	00 
  404e7e:	48 89 84 24 d8 00 00 	mov    %rax,0xd8(%rsp)
  404e85:	00 
  404e86:	48 8b 84 24 30 01 00 	mov    0x130(%rsp),%rax
  404e8d:	00 
  404e8e:	48 89 44 24 48       	mov    %rax,0x48(%rsp)
  404e93:	48 8b 84 24 00 01 00 	mov    0x100(%rsp),%rax
  404e9a:	00 
  404e9b:	48 8b 94 24 08 01 00 	mov    0x108(%rsp),%rdx
  404ea2:	00 
  404ea3:	eb 5e                	jmp    404f03 <lu+0x1df3>
  404ea5:	66 2e 0f 1f 84 00 00 	nopw   %cs:0x0(%rax,%rax,1)
  404eac:	00 00 00 
  404eaf:	90                   	nop
  404eb0:	48 8b 54 24 68       	mov    0x68(%rsp),%rdx
  404eb5:	48 83 c2 01          	add    $0x1,%rdx
  404eb9:	48 8b 84 24 28 02 00 	mov    0x228(%rsp),%rax
  404ec0:	00 
  404ec1:	48 01 44 24 48       	add    %rax,0x48(%rsp)
  404ec6:	48 01 84 24 d8 00 00 	add    %rax,0xd8(%rsp)
  404ecd:	00 
  404ece:	48 8b ac 24 18 01 00 	mov    0x118(%rsp),%rbp
  404ed5:	00 
  404ed6:	48 8b 4c 24 70       	mov    0x70(%rsp),%rcx
  404edb:	48 01 e9             	add    %rbp,%rcx
  404ede:	48 01 44 24 40       	add    %rax,0x40(%rsp)
  404ee3:	48 01 44 24 58       	add    %rax,0x58(%rsp)
  404ee8:	48 01 44 24 60       	add    %rax,0x60(%rsp)
  404eed:	4c 8b 7c 24 08       	mov    0x8(%rsp),%r15
  404ef2:	48 8b 84 24 f8 00 00 	mov    0xf8(%rsp),%rax
  404ef9:	00 
  404efa:	4c 39 f8             	cmp    %r15,%rax
  404efd:	0f 8d 0d fe ff ff    	jge    404d10 <lu+0x1c00>
  404f03:	49 39 cf             	cmp    %rcx,%r15
  404f06:	48 89 4c 24 70       	mov    %rcx,0x70(%rsp)
  404f0b:	49 0f 4e cf          	cmovle %r15,%rcx
  404f0f:	48 89 8c 24 20 01 00 	mov    %rcx,0x120(%rsp)
  404f16:	00 
  404f17:	48 89 44 24 28       	mov    %rax,0x28(%rsp)
  404f1c:	48 8d 04 28          	lea    (%rax,%rbp,1),%rax
  404f20:	48 89 84 24 f8 00 00 	mov    %rax,0xf8(%rsp)
  404f27:	00 
  404f28:	48 8b 84 24 a0 00 00 	mov    0xa0(%rsp),%rax
  404f2f:	00 
  404f30:	48 89 54 24 68       	mov    %rdx,0x68(%rsp)
  404f35:	48 01 d0             	add    %rdx,%rax
  404f38:	48 99                	cqto   
  404f3a:	48 f7 bc 24 f0 00 00 	idivq  0xf0(%rsp)
  404f41:	00 
  404f42:	48 3b 94 24 10 01 00 	cmp    0x110(%rsp),%rdx
  404f49:	00 
  404f4a:	0f 85 60 ff ff ff    	jne    404eb0 <lu+0x1da0>
  404f50:	48 8b 44 24 08       	mov    0x8(%rsp),%rax
  404f55:	48 8b 8c 24 f8 00 00 	mov    0xf8(%rsp),%rcx
  404f5c:	00 
  404f5d:	48 39 c1             	cmp    %rax,%rcx
  404f60:	48 0f 4f c8          	cmovg  %rax,%rcx
  404f64:	48 8b 84 24 38 01 00 	mov    0x138(%rsp),%rax
  404f6b:	00 
  404f6c:	48 3b 84 24 d0 00 00 	cmp    0xd0(%rsp),%rax
  404f73:	00 
  404f74:	0f 8e 36 ff ff ff    	jle    404eb0 <lu+0x1da0>
  404f7a:	48 2b 4c 24 28       	sub    0x28(%rsp),%rcx
  404f7f:	48 89 8c 24 e0 00 00 	mov    %rcx,0xe0(%rsp)
  404f86:	00 
  404f87:	48 85 c9             	test   %rcx,%rcx
  404f8a:	0f 8e 20 ff ff ff    	jle    404eb0 <lu+0x1da0>
  404f90:	48 8b 44 24 28       	mov    0x28(%rsp),%rax
  404f95:	48 0f af 44 24 08    	imul   0x8(%rsp),%rax
  404f9b:	48 03 44 24 20       	add    0x20(%rsp),%rax
  404fa0:	48 8b 8c 24 98 01 00 	mov    0x198(%rsp),%rcx
  404fa7:	00 
  404fa8:	48 8d 04 c1          	lea    (%rcx,%rax,8),%rax
  404fac:	48 89 44 24 30       	mov    %rax,0x30(%rsp)
  404fb1:	48 8b 44 24 60       	mov    0x60(%rsp),%rax
  404fb6:	48 89 84 24 c0 00 00 	mov    %rax,0xc0(%rsp)
  404fbd:	00 
  404fbe:	48 8b 44 24 58       	mov    0x58(%rsp),%rax
  404fc3:	48 89 44 24 10       	mov    %rax,0x10(%rsp)
  404fc8:	4c 8b b4 24 a0 01 00 	mov    0x1a0(%rsp),%r14
  404fcf:	00 
  404fd0:	45 31 ff             	xor    %r15d,%r15d
  404fd3:	eb 36                	jmp    40500b <lu+0x1efb>
  404fd5:	66 2e 0f 1f 84 00 00 	nopw   %cs:0x0(%rax,%rax,1)
  404fdc:	00 00 00 
  404fdf:	90                   	nop
  404fe0:	4c 8b 7c 24 50       	mov    0x50(%rsp),%r15
  404fe5:	49 83 c7 01          	add    $0x1,%r15
  404fe9:	4c 03 b4 24 b0 00 00 	add    0xb0(%rsp),%r14
  404ff0:	00 
  404ff1:	48 83 44 24 10 08    	addq   $0x8,0x10(%rsp)
  404ff7:	48 83 84 24 c0 00 00 	addq   $0x8,0xc0(%rsp)
  404ffe:	00 08 
  405000:	4c 3b 7c 24 78       	cmp    0x78(%rsp),%r15
  405005:	0f 84 a5 fe ff ff    	je     404eb0 <lu+0x1da0>
  40500b:	48 8b 84 24 80 00 00 	mov    0x80(%rsp),%rax
  405012:	00 
  405013:	48 3b 84 24 a8 00 00 	cmp    0xa8(%rsp),%rax
  40501a:	00 
  40501b:	4c 89 7c 24 50       	mov    %r15,0x50(%rsp)
  405020:	0f 85 da 00 00 00    	jne    405100 <lu+0x1ff0>
  405026:	4c 0f af 7c 24 08    	imul   0x8(%rsp),%r15
  40502c:	31 ed                	xor    %ebp,%ebp
  40502e:	48 8b 9c 24 20 01 00 	mov    0x120(%rsp),%rbx
  405035:	00 
  405036:	eb 16                	jmp    40504e <lu+0x1f3e>
  405038:	0f 1f 84 00 00 00 00 	nopl   0x0(%rax,%rax,1)
  40503f:	00 
  405040:	48 83 c3 fe          	add    $0xfffffffffffffffe,%rbx
  405044:	48 01 c5             	add    %rax,%rbp
  405047:	48 39 5c 24 28       	cmp    %rbx,0x28(%rsp)
  40504c:	74 92                	je     404fe0 <lu+0x1ed0>
  40504e:	48 c7 c0 f8 ff ff ff 	mov    $0xfffffffffffffff8,%rax
  405055:	64 48 8b 08          	mov    %fs:(%rax),%rcx
  405059:	48 c7 c0 b0 ff ff ff 	mov    $0xffffffffffffffb0,%rax
  405060:	64 48 8b 30          	mov    %fs:(%rax),%rsi
  405064:	0f 31                	rdtsc  
  405066:	48 c1 e2 20          	shl    $0x20,%rdx
  40506a:	48 09 c2             	or     %rax,%rdx
  40506d:	48 29 ca             	sub    %rcx,%rdx
  405070:	48 39 f2             	cmp    %rsi,%rdx
  405073:	73 1b                	jae    405090 <lu+0x1f80>
  405075:	f6 44 24 18 01       	testb  $0x1,0x18(%rsp)
  40507a:	48 8b 84 24 e8 00 00 	mov    0xe8(%rsp),%rax
  405081:	00 
  405082:	74 bc                	je     405040 <lu+0x1f30>
  405084:	eb 20                	jmp    4050a6 <lu+0x1f96>
  405086:	66 2e 0f 1f 84 00 00 	nopw   %cs:0x0(%rax,%rax,1)
  40508d:	00 00 00 
  405090:	31 c0                	xor    %eax,%eax
  405092:	e8 99 20 00 00       	callq  407130 <concord_rdtsc_func>
  405097:	f6 44 24 18 01       	testb  $0x1,0x18(%rsp)
  40509c:	48 8b 84 24 e8 00 00 	mov    0xe8(%rsp),%rax
  4050a3:	00 
  4050a4:	74 9a                	je     405040 <lu+0x1f30>
  4050a6:	48 8b 8c 24 c0 00 00 	mov    0xc0(%rsp),%rcx
  4050ad:	00 
  4050ae:	f2 0f 10 04 29       	movsd  (%rcx,%rbp,1),%xmm0
  4050b3:	48 8b 54 24 48       	mov    0x48(%rsp),%rdx
  4050b8:	f2 0f 10 0c 2a       	movsd  (%rdx,%rbp,1),%xmm1
  4050bd:	48 8b 8c 24 b8 00 00 	mov    0xb8(%rsp),%rcx
  4050c4:	00 
  4050c5:	f2 42 0f 59 04 f9    	mulsd  (%rcx,%r15,8),%xmm0
  4050cb:	f2 0f 5c c8          	subsd  %xmm0,%xmm1
  4050cf:	f2 0f 11 0c 2a       	movsd  %xmm1,(%rdx,%rbp,1)
  4050d4:	48 8b 54 24 10       	mov    0x10(%rsp),%rdx
  4050d9:	f2 0f 10 04 2a       	movsd  (%rdx,%rbp,1),%xmm0
  4050de:	48 8b 54 24 40       	mov    0x40(%rsp),%rdx
  4050e3:	f2 0f 10 0c 2a       	movsd  (%rdx,%rbp,1),%xmm1
  4050e8:	f2 42 0f 59 04 f9    	mulsd  (%rcx,%r15,8),%xmm0
  4050ee:	f2 0f 5c c8          	subsd  %xmm0,%xmm1
  4050f2:	f2 0f 11 0c 2a       	movsd  %xmm1,(%rdx,%rbp,1)
  4050f7:	e9 44 ff ff ff       	jmpq   405040 <lu+0x1f30>
  4050fc:	0f 1f 40 00          	nopl   0x0(%rax)
  405100:	4c 8b a4 24 d8 00 00 	mov    0xd8(%rsp),%r12
  405107:	00 
  405108:	48 8b 5c 24 48       	mov    0x48(%rsp),%rbx
  40510d:	31 ed                	xor    %ebp,%ebp
  40510f:	eb 2f                	jmp    405140 <lu+0x2030>
  405111:	66 2e 0f 1f 84 00 00 	nopw   %cs:0x0(%rax,%rax,1)
  405118:	00 00 00 
  40511b:	0f 1f 44 00 00       	nopl   0x0(%rax,%rax,1)
  405120:	48 83 c5 02          	add    $0x2,%rbp
  405124:	48 8b 84 24 e8 00 00 	mov    0xe8(%rsp),%rax
  40512b:	00 
  40512c:	48 01 c3             	add    %rax,%rbx
  40512f:	49 01 c4             	add    %rax,%r12
  405132:	48 3b ac 24 e0 00 00 	cmp    0xe0(%rsp),%rbp
  405139:	00 
  40513a:	0f 84 a0 fe ff ff    	je     404fe0 <lu+0x1ed0>
  405140:	48 c7 c0 f8 ff ff ff 	mov    $0xfffffffffffffff8,%rax
  405147:	64 48 8b 08          	mov    %fs:(%rax),%rcx
  40514b:	48 c7 c0 b0 ff ff ff 	mov    $0xffffffffffffffb0,%rax
  405152:	64 48 8b 30          	mov    %fs:(%rax),%rsi
  405156:	0f 31                	rdtsc  
  405158:	48 c1 e2 20          	shl    $0x20,%rdx
  40515c:	48 09 c2             	or     %rax,%rdx
  40515f:	48 29 ca             	sub    %rcx,%rdx
  405162:	48 39 f2             	cmp    %rsi,%rdx
  405165:	72 07                	jb     40516e <lu+0x205e>
  405167:	31 c0                	xor    %eax,%eax
  405169:	e8 c2 1f 00 00       	callq  407130 <concord_rdtsc_func>
  40516e:	48 89 e8             	mov    %rbp,%rax
  405171:	48 8b 54 24 08       	mov    0x8(%rsp),%rdx
  405176:	48 0f af c2          	imul   %rdx,%rax
  40517a:	48 8b 74 24 50       	mov    0x50(%rsp),%rsi
  40517f:	48 01 f0             	add    %rsi,%rax
  405182:	48 8b 4c 24 30       	mov    0x30(%rsp),%rcx
  405187:	f2 0f 10 04 c1       	movsd  (%rcx,%rax,8),%xmm0
  40518c:	31 c9                	xor    %ecx,%ecx
  40518e:	66 90                	xchg   %ax,%ax
  405190:	48 89 c8             	mov    %rcx,%rax
  405193:	f2 41 0f 10 0c ce    	movsd  (%r14,%rcx,8),%xmm1
  405199:	f2 0f 59 c8          	mulsd  %xmm0,%xmm1
  40519d:	f2 0f 10 14 cb       	movsd  (%rbx,%rcx,8),%xmm2
  4051a2:	f2 0f 5c d1          	subsd  %xmm1,%xmm2
  4051a6:	f2 0f 10 4c cb 08    	movsd  0x8(%rbx,%rcx,8),%xmm1
  4051ac:	f2 0f 11 14 cb       	movsd  %xmm2,(%rbx,%rcx,8)
  4051b1:	f2 41 0f 10 54 ce 08 	movsd  0x8(%r14,%rcx,8),%xmm2
  4051b8:	f2 0f 59 d0          	mulsd  %xmm0,%xmm2
  4051bc:	f2 0f 5c ca          	subsd  %xmm2,%xmm1
  4051c0:	f2 0f 11 4c cb 08    	movsd  %xmm1,0x8(%rbx,%rcx,8)
  4051c6:	48 83 c1 02          	add    $0x2,%rcx
  4051ca:	49 39 cd             	cmp    %rcx,%r13
  4051cd:	75 c1                	jne    405190 <lu+0x2080>
  4051cf:	f6 44 24 18 01       	testb  $0x1,0x18(%rsp)
  4051d4:	74 17                	je     4051ed <lu+0x20dd>
  4051d6:	f2 0f 10 4c c3 10    	movsd  0x10(%rbx,%rax,8),%xmm1
  4051dc:	f2 41 0f 59 44 c6 10 	mulsd  0x10(%r14,%rax,8),%xmm0
  4051e3:	f2 0f 5c c8          	subsd  %xmm0,%xmm1
  4051e7:	f2 0f 11 4c c3 10    	movsd  %xmm1,0x10(%rbx,%rax,8)
  4051ed:	48 89 e8             	mov    %rbp,%rax
  4051f0:	48 83 c8 01          	or     $0x1,%rax
  4051f4:	48 0f af c2          	imul   %rdx,%rax
  4051f8:	48 01 f0             	add    %rsi,%rax
  4051fb:	48 8b 4c 24 30       	mov    0x30(%rsp),%rcx
  405200:	f2 0f 10 1c c1       	movsd  (%rcx,%rax,8),%xmm3
  405205:	31 c0                	xor    %eax,%eax
  405207:	f2 0f 11 5c 24 38    	movsd  %xmm3,0x38(%rsp)
  40520d:	eb 7b                	jmp    40528a <lu+0x217a>
  40520f:	90                   	nop
  405210:	f2 43 0f 10 04 fe    	movsd  (%r14,%r15,8),%xmm0
  405216:	f2 0f 59 c3          	mulsd  %xmm3,%xmm0
  40521a:	f2 43 0f 10 4c fc e8 	movsd  -0x18(%r12,%r15,8),%xmm1
  405221:	f2 0f 5c c8          	subsd  %xmm0,%xmm1
  405225:	f2 43 0f 10 44 fc f0 	movsd  -0x10(%r12,%r15,8),%xmm0
  40522c:	f2 43 0f 11 4c fc e8 	movsd  %xmm1,-0x18(%r12,%r15,8)
  405233:	f2 43 0f 10 4c fe 08 	movsd  0x8(%r14,%r15,8),%xmm1
  40523a:	f2 0f 59 cb          	mulsd  %xmm3,%xmm1
  40523e:	f2 0f 5c c1          	subsd  %xmm1,%xmm0
  405242:	f2 43 0f 11 44 fc f0 	movsd  %xmm0,-0x10(%r12,%r15,8)
  405249:	f2 43 0f 10 44 fc f8 	movsd  -0x8(%r12,%r15,8),%xmm0
  405250:	f2 43 0f 10 4c fe 10 	movsd  0x10(%r14,%r15,8),%xmm1
  405257:	f2 0f 59 cb          	mulsd  %xmm3,%xmm1
  40525b:	f2 0f 5c c1          	subsd  %xmm1,%xmm0
  40525f:	f2 43 0f 11 44 fc f8 	movsd  %xmm0,-0x8(%r12,%r15,8)
  405266:	f2 43 0f 10 0c fc    	movsd  (%r12,%r15,8),%xmm1
  40526c:	f2 43 0f 10 54 fe 18 	movsd  0x18(%r14,%r15,8),%xmm2
  405273:	f2 0f 59 d3          	mulsd  %xmm3,%xmm2
  405277:	f2 0f 5c ca          	subsd  %xmm2,%xmm1
  40527b:	f2 43 0f 11 0c fc    	movsd  %xmm1,(%r12,%r15,8)
  405281:	49 8d 47 04          	lea    0x4(%r15),%rax
  405285:	49 39 c5             	cmp    %rax,%r13
  405288:	74 46                	je     4052d0 <lu+0x21c0>
  40528a:	49 89 c7             	mov    %rax,%r15
  40528d:	48 c7 c0 f8 ff ff ff 	mov    $0xfffffffffffffff8,%rax
  405294:	64 48 8b 08          	mov    %fs:(%rax),%rcx
  405298:	48 c7 c0 b0 ff ff ff 	mov    $0xffffffffffffffb0,%rax
  40529f:	64 48 8b 30          	mov    %fs:(%rax),%rsi
  4052a3:	0f 31                	rdtsc  
  4052a5:	48 c1 e2 20          	shl    $0x20,%rdx
  4052a9:	48 09 c2             	or     %rax,%rdx
  4052ac:	48 29 ca             	sub    %rcx,%rdx
  4052af:	48 39 f2             	cmp    %rsi,%rdx
  4052b2:	0f 82 58 ff ff ff    	jb     405210 <lu+0x2100>
  4052b8:	31 c0                	xor    %eax,%eax
  4052ba:	e8 71 1e 00 00       	callq  407130 <concord_rdtsc_func>
  4052bf:	f2 0f 10 5c 24 38    	movsd  0x38(%rsp),%xmm3
  4052c5:	e9 46 ff ff ff       	jmpq   405210 <lu+0x2100>
  4052ca:	66 0f 1f 44 00 00    	nopw   0x0(%rax,%rax,1)
  4052d0:	f6 44 24 18 01       	testb  $0x1,0x18(%rsp)
  4052d5:	0f 84 45 fe ff ff    	je     405120 <lu+0x2010>
  4052db:	f2 43 0f 59 5c fe 10 	mulsd  0x10(%r14,%r15,8),%xmm3
  4052e2:	f2 0f 5c c3          	subsd  %xmm3,%xmm0
  4052e6:	f2 43 0f 11 44 fc f8 	movsd  %xmm0,-0x8(%r12,%r15,8)
  4052ed:	e9 2e fe ff ff       	jmpq   405120 <lu+0x2010>
  4052f2:	66 2e 0f 1f 84 00 00 	nopw   %cs:0x0(%rax,%rax,1)
  4052f9:	00 00 00 
  4052fc:	0f 1f 40 00          	nopl   0x0(%rax)
  405300:	44 8a 64 24 07       	mov    0x7(%rsp),%r12b
  405305:	45 84 e4             	test   %r12b,%r12b
  405308:	0f 84 b2 df ff ff    	je     4032c0 <lu+0x1b0>
  40530e:	48 8d bc 24 88 00 00 	lea    0x88(%rsp),%rdi
  405315:	00 
  405316:	31 f6                	xor    %esi,%esi
  405318:	e8 13 bc ff ff       	callq  400f30 <gettimeofday@plt>
  40531d:	4c 69 84 24 88 00 00 	imul   $0xf4240,0x88(%rsp),%r8
  405324:	00 40 42 0f 00 
  405329:	48 8b 9c 24 60 02 00 	mov    0x260(%rsp),%rbx
  405330:	00 
  405331:	48 89 d9             	mov    %rbx,%rcx
  405334:	48 2b 8c 24 48 02 00 	sub    0x248(%rsp),%rcx
  40533b:	00 
  40533c:	66 48 0f 6e c1       	movq   %rcx,%xmm0
  405341:	66 0f 6f 15 d7 21 00 	movdqa 0x21d7(%rip),%xmm2        # 407520 <_IO_stdin_used+0xc0>
  405348:	00 
  405349:	66 0f 62 c2          	punpckldq %xmm2,%xmm0
  40534d:	66 0f 28 1d db 21 00 	movapd 0x21db(%rip),%xmm3        # 407530 <_IO_stdin_used+0xd0>
  405354:	00 
  405355:	66 0f 5c c3          	subpd  %xmm3,%xmm0
  405359:	66 0f 28 c8          	movapd %xmm0,%xmm1
  40535d:	66 0f 15 c8          	unpckhpd %xmm0,%xmm1
  405361:	f2 0f 58 c8          	addsd  %xmm0,%xmm1
  405365:	48 8b b4 24 40 02 00 	mov    0x240(%rsp),%rsi
  40536c:	00 
  40536d:	f2 0f 58 0e          	addsd  (%rsi),%xmm1
  405371:	48 8b 8c 24 90 00 00 	mov    0x90(%rsp),%rcx
  405378:	00 
  405379:	f2 0f 11 0e          	movsd  %xmm1,(%rsi)
  40537d:	48 8b bc 24 68 02 00 	mov    0x268(%rsp),%rdi
  405384:	00 
  405385:	48 89 fa             	mov    %rdi,%rdx
  405388:	48 8b 84 24 50 02 00 	mov    0x250(%rsp),%rax
  40538f:	00 
  405390:	48 29 c2             	sub    %rax,%rdx
  405393:	66 48 0f 6e c2       	movq   %rdx,%xmm0
  405398:	66 0f 62 c2          	punpckldq %xmm2,%xmm0
  40539c:	66 0f 5c c3          	subpd  %xmm3,%xmm0
  4053a0:	66 0f 28 c8          	movapd %xmm0,%xmm1
  4053a4:	66 0f 15 c8          	unpckhpd %xmm0,%xmm1
  4053a8:	f2 0f 58 c8          	addsd  %xmm0,%xmm1
  4053ac:	f2 0f 58 4e 08       	addsd  0x8(%rsi),%xmm1
  4053b1:	f2 0f 11 4e 08       	movsd  %xmm1,0x8(%rsi)
  4053b6:	48 8b 94 24 58 02 00 	mov    0x258(%rsp),%rdx
  4053bd:	00 
  4053be:	48 29 d1             	sub    %rdx,%rcx
  4053c1:	4c 01 c1             	add    %r8,%rcx
  4053c4:	66 48 0f 6e c1       	movq   %rcx,%xmm0
  4053c9:	66 0f 62 c2          	punpckldq %xmm2,%xmm0
  4053cd:	66 0f 5c c3          	subpd  %xmm3,%xmm0
  4053d1:	66 0f 28 c8          	movapd %xmm0,%xmm1
  4053d5:	66 0f 15 c8          	unpckhpd %xmm0,%xmm1
  4053d9:	f2 0f 58 c8          	addsd  %xmm0,%xmm1
  4053dd:	f2 0f 58 4e 10       	addsd  0x10(%rsi),%xmm1
  4053e2:	f2 0f 11 4e 10       	movsd  %xmm1,0x10(%rsi)
  4053e7:	48 29 d8             	sub    %rbx,%rax
  4053ea:	48 29 f8             	sub    %rdi,%rax
  4053ed:	48 01 d0             	add    %rdx,%rax
  4053f0:	66 48 0f 6e c0       	movq   %rax,%xmm0
  4053f5:	66 0f 62 c2          	punpckldq %xmm2,%xmm0
  4053f9:	66 0f 5c c3          	subpd  %xmm3,%xmm0
  4053fd:	66 0f 28 c8          	movapd %xmm0,%xmm1
  405401:	66 0f 15 c8          	unpckhpd %xmm0,%xmm1
  405405:	f2 0f 58 c8          	addsd  %xmm0,%xmm1
  405409:	f2 0f 58 4e 18       	addsd  0x18(%rsi),%xmm1
  40540e:	f2 0f 11 4e 18       	movsd  %xmm1,0x18(%rsi)
  405413:	e9 a8 de ff ff       	jmpq   4032c0 <lu+0x1b0>
  405418:	48 81 c4 c8 02 00 00 	add    $0x2c8,%rsp
  40541f:	5b                   	pop    %rbx
  405420:	41 5c                	pop    %r12
  405422:	41 5d                	pop    %r13
  405424:	41 5e                	pop    %r14
  405426:	41 5f                	pop    %r15
  405428:	5d                   	pop    %rbp
  405429:	c3                   	retq   
  40542a:	bf b8 7d 40 00       	mov    $0x407db8,%edi
  40542f:	e8 7c ba ff ff       	callq  400eb0 <puts@plt>
  405434:	bf ff ff ff ff       	mov    $0xffffffff,%edi
  405439:	e8 e2 bb ff ff       	callq  401020 <exit@plt>
  40543e:	66 90                	xchg   %ax,%ax

0000000000405440 <InitA>:
  405440:	55                   	push   %rbp
  405441:	41 57                	push   %r15
  405443:	41 56                	push   %r14
  405445:	41 55                	push   %r13
  405447:	41 54                	push   %r12
  405449:	53                   	push   %rbx
  40544a:	48 83 ec 18          	sub    $0x18,%rsp
  40544e:	49 89 fd             	mov    %rdi,%r13
  405451:	bf 01 00 00 00       	mov    $0x1,%edi
  405456:	e8 75 bb ff ff       	callq  400fd0 <srand48@plt>
  40545b:	4c 8b 25 ce 3c 20 00 	mov    0x203cce(%rip),%r12        # 609130 <n>
  405462:	4d 85 e4             	test   %r12,%r12
  405465:	0f 8e 8d 02 00 00    	jle    4056f8 <InitA+0x2b8>
  40546b:	49 c7 c6 f8 ff ff ff 	mov    $0xfffffffffffffff8,%r14
  405472:	49 c7 c7 b0 ff ff ff 	mov    $0xffffffffffffffb0,%r15
  405479:	31 db                	xor    %ebx,%ebx
  40547b:	eb 10                	jmp    40548d <InitA+0x4d>
  40547d:	0f 1f 00             	nopl   (%rax)
  405480:	48 83 c3 01          	add    $0x1,%rbx
  405484:	4c 39 e3             	cmp    %r12,%rbx
  405487:	0f 8d a5 00 00 00    	jge    405532 <InitA+0xf2>
  40548d:	64 49 8b 0e          	mov    %fs:(%r14),%rcx
  405491:	64 49 8b 37          	mov    %fs:(%r15),%rsi
  405495:	0f 31                	rdtsc  
  405497:	48 c1 e2 20          	shl    $0x20,%rdx
  40549b:	48 09 c2             	or     %rax,%rdx
  40549e:	48 29 ca             	sub    %rcx,%rdx
  4054a1:	48 39 f2             	cmp    %rsi,%rdx
  4054a4:	72 07                	jb     4054ad <InitA+0x6d>
  4054a6:	31 c0                	xor    %eax,%eax
  4054a8:	e8 83 1c 00 00       	callq  407130 <concord_rdtsc_func>
  4054ad:	4d 85 e4             	test   %r12,%r12
  4054b0:	7e ce                	jle    405480 <InitA+0x40>
  4054b2:	31 ed                	xor    %ebp,%ebp
  4054b4:	eb 18                	jmp    4054ce <InitA+0x8e>
  4054b6:	66 2e 0f 1f 84 00 00 	nopw   %cs:0x0(%rax,%rax,1)
  4054bd:	00 00 00 
  4054c0:	f2 0f 11 0c c8       	movsd  %xmm1,(%rax,%rcx,8)
  4054c5:	48 83 c5 01          	add    $0x1,%rbp
  4054c9:	4c 39 e5             	cmp    %r12,%rbp
  4054cc:	7d b2                	jge    405480 <InitA+0x40>
  4054ce:	64 49 8b 0e          	mov    %fs:(%r14),%rcx
  4054d2:	64 49 8b 37          	mov    %fs:(%r15),%rsi
  4054d6:	0f 31                	rdtsc  
  4054d8:	48 c1 e2 20          	shl    $0x20,%rdx
  4054dc:	48 09 c2             	or     %rax,%rdx
  4054df:	48 29 ca             	sub    %rcx,%rdx
  4054e2:	48 39 f2             	cmp    %rsi,%rdx
  4054e5:	72 07                	jb     4054ee <InitA+0xae>
  4054e7:	31 c0                	xor    %eax,%eax
  4054e9:	e8 42 1c 00 00       	callq  407130 <concord_rdtsc_func>
  4054ee:	e8 cd ba ff ff       	callq  400fc0 <lrand48@plt>
  4054f3:	0f 57 c0             	xorps  %xmm0,%xmm0
  4054f6:	f2 48 0f 2a c0       	cvtsi2sd %rax,%xmm0
  4054fb:	f2 0f 5e 05 65 1f 00 	divsd  0x1f65(%rip),%xmm0        # 407468 <_IO_stdin_used+0x8>
  405502:	00 
  405503:	48 8b 05 de 3e 20 00 	mov    0x203ede(%rip),%rax        # 6093e8 <a>
  40550a:	4c 8b 25 1f 3c 20 00 	mov    0x203c1f(%rip),%r12        # 609130 <n>
  405511:	48 89 d9             	mov    %rbx,%rcx
  405514:	49 0f af cc          	imul   %r12,%rcx
  405518:	48 01 e9             	add    %rbp,%rcx
  40551b:	66 0f 28 c8          	movapd %xmm0,%xmm1
  40551f:	f2 0f 59 0d 49 1f 00 	mulsd  0x1f49(%rip),%xmm1        # 407470 <_IO_stdin_used+0x10>
  405526:	00 
  405527:	48 39 eb             	cmp    %rbp,%rbx
  40552a:	74 94                	je     4054c0 <InitA+0x80>
  40552c:	66 0f 28 c8          	movapd %xmm0,%xmm1
  405530:	eb 8e                	jmp    4054c0 <InitA+0x80>
  405532:	4d 85 e4             	test   %r12,%r12
  405535:	0f 8e bd 01 00 00    	jle    4056f8 <InitA+0x2b8>
  40553b:	4a 8d 14 e5 00 00 00 	lea    0x0(,%r12,8),%rdx
  405542:	00 
  405543:	4c 89 ef             	mov    %r13,%rdi
  405546:	31 f6                	xor    %esi,%esi
  405548:	e8 f3 b9 ff ff       	callq  400f40 <memset@plt>
  40554d:	48 8b 1d 94 3e 20 00 	mov    0x203e94(%rip),%rbx        # 6093e8 <a>
  405554:	45 89 e6             	mov    %r12d,%r14d
  405557:	41 83 e6 01          	and    $0x1,%r14d
  40555b:	49 83 fc 01          	cmp    $0x1,%r12
  40555f:	75 66                	jne    4055c7 <InitA+0x187>
  405561:	48 83 c3 08          	add    $0x8,%rbx
  405565:	49 c7 c7 f8 ff ff ff 	mov    $0xfffffffffffffff8,%r15
  40556c:	48 c7 c5 b0 ff ff ff 	mov    $0xffffffffffffffb0,%rbp
  405573:	eb 0f                	jmp    405584 <InitA+0x144>
  405575:	66 2e 0f 1f 84 00 00 	nopw   %cs:0x0(%rax,%rax,1)
  40557c:	00 00 00 
  40557f:	90                   	nop
  405580:	48 83 c3 10          	add    $0x10,%rbx
  405584:	64 49 8b 0f          	mov    %fs:(%r15),%rcx
  405588:	64 48 8b 75 00       	mov    %fs:0x0(%rbp),%rsi
  40558d:	0f 31                	rdtsc  
  40558f:	48 c1 e2 20          	shl    $0x20,%rdx
  405593:	48 09 c2             	or     %rax,%rdx
  405596:	48 29 ca             	sub    %rcx,%rdx
  405599:	48 39 f2             	cmp    %rsi,%rdx
  40559c:	72 07                	jb     4055a5 <InitA+0x165>
  40559e:	31 c0                	xor    %eax,%eax
  4055a0:	e8 8b 1b 00 00       	callq  407130 <concord_rdtsc_func>
  4055a5:	4d 85 f6             	test   %r14,%r14
  4055a8:	74 d6                	je     405580 <InitA+0x140>
  4055aa:	f2 0f 10 43 f8       	movsd  -0x8(%rbx),%xmm0
  4055af:	f2 41 0f 58 45 00    	addsd  0x0(%r13),%xmm0
  4055b5:	f2 41 0f 11 45 00    	movsd  %xmm0,0x0(%r13)
  4055bb:	f2 0f 58 03          	addsd  (%rbx),%xmm0
  4055bf:	f2 41 0f 11 45 00    	movsd  %xmm0,0x0(%r13)
  4055c5:	eb b9                	jmp    405580 <InitA+0x140>
  4055c7:	4d 89 e0             	mov    %r12,%r8
  4055ca:	49 c1 e0 04          	shl    $0x4,%r8
  4055ce:	4c 89 e5             	mov    %r12,%rbp
  4055d1:	4c 29 f5             	sub    %r14,%rbp
  4055d4:	4e 8d 3c e3          	lea    (%rbx,%r12,8),%r15
  4055d8:	31 ff                	xor    %edi,%edi
  4055da:	4c 89 44 24 08       	mov    %r8,0x8(%rsp)
  4055df:	eb 22                	jmp    405603 <InitA+0x1c3>
  4055e1:	66 2e 0f 1f 84 00 00 	nopw   %cs:0x0(%rax,%rax,1)
  4055e8:	00 00 00 
  4055eb:	0f 1f 44 00 00       	nopl   0x0(%rax,%rax,1)
  4055f0:	48 83 c7 02          	add    $0x2,%rdi
  4055f4:	4c 01 c3             	add    %r8,%rbx
  4055f7:	4d 01 c7             	add    %r8,%r15
  4055fa:	4c 39 e7             	cmp    %r12,%rdi
  4055fd:	0f 84 f5 00 00 00    	je     4056f8 <InitA+0x2b8>
  405603:	48 c7 c0 f8 ff ff ff 	mov    $0xfffffffffffffff8,%rax
  40560a:	64 48 8b 08          	mov    %fs:(%rax),%rcx
  40560e:	48 c7 c0 b0 ff ff ff 	mov    $0xffffffffffffffb0,%rax
  405615:	64 48 8b 30          	mov    %fs:(%rax),%rsi
  405619:	0f 31                	rdtsc  
  40561b:	48 c1 e2 20          	shl    $0x20,%rdx
  40561f:	48 09 c2             	or     %rax,%rdx
  405622:	48 29 ca             	sub    %rcx,%rdx
  405625:	48 39 f2             	cmp    %rsi,%rdx
  405628:	72 16                	jb     405640 <InitA+0x200>
  40562a:	31 c0                	xor    %eax,%eax
  40562c:	48 89 7c 24 10       	mov    %rdi,0x10(%rsp)
  405631:	e8 fa 1a 00 00       	callq  407130 <concord_rdtsc_func>
  405636:	48 8b 7c 24 10       	mov    0x10(%rsp),%rdi
  40563b:	4c 8b 44 24 08       	mov    0x8(%rsp),%r8
  405640:	31 c9                	xor    %ecx,%ecx
  405642:	66 2e 0f 1f 84 00 00 	nopw   %cs:0x0(%rax,%rax,1)
  405649:	00 00 00 
  40564c:	0f 1f 40 00          	nopl   0x0(%rax)
  405650:	48 89 c8             	mov    %rcx,%rax
  405653:	f2 0f 10 04 cb       	movsd  (%rbx,%rcx,8),%xmm0
  405658:	f2 41 0f 58 44 cd 00 	addsd  0x0(%r13,%rcx,8),%xmm0
  40565f:	f2 41 0f 11 44 cd 00 	movsd  %xmm0,0x0(%r13,%rcx,8)
  405666:	f2 0f 10 44 cb 08    	movsd  0x8(%rbx,%rcx,8),%xmm0
  40566c:	f2 41 0f 58 44 cd 08 	addsd  0x8(%r13,%rcx,8),%xmm0
  405673:	f2 41 0f 11 44 cd 08 	movsd  %xmm0,0x8(%r13,%rcx,8)
  40567a:	48 83 c1 02          	add    $0x2,%rcx
  40567e:	48 39 cd             	cmp    %rcx,%rbp
  405681:	75 cd                	jne    405650 <InitA+0x210>
  405683:	4d 85 f6             	test   %r14,%r14
  405686:	74 14                	je     40569c <InitA+0x25c>
  405688:	f2 0f 10 44 c3 10    	movsd  0x10(%rbx,%rax,8),%xmm0
  40568e:	f2 41 0f 58 44 c5 10 	addsd  0x10(%r13,%rax,8),%xmm0
  405695:	f2 41 0f 11 44 c5 10 	movsd  %xmm0,0x10(%r13,%rax,8)
  40569c:	31 c9                	xor    %ecx,%ecx
  40569e:	66 90                	xchg   %ax,%ax
  4056a0:	48 89 c8             	mov    %rcx,%rax
  4056a3:	f2 41 0f 10 04 cf    	movsd  (%r15,%rcx,8),%xmm0
  4056a9:	f2 41 0f 58 44 cd 00 	addsd  0x0(%r13,%rcx,8),%xmm0
  4056b0:	f2 41 0f 11 44 cd 00 	movsd  %xmm0,0x0(%r13,%rcx,8)
  4056b7:	f2 41 0f 10 44 cf 08 	movsd  0x8(%r15,%rcx,8),%xmm0
  4056be:	f2 41 0f 58 44 cd 08 	addsd  0x8(%r13,%rcx,8),%xmm0
  4056c5:	f2 41 0f 11 44 cd 08 	movsd  %xmm0,0x8(%r13,%rcx,8)
  4056cc:	48 83 c1 02          	add    $0x2,%rcx
  4056d0:	48 39 cd             	cmp    %rcx,%rbp
  4056d3:	75 cb                	jne    4056a0 <InitA+0x260>
  4056d5:	4d 85 f6             	test   %r14,%r14
  4056d8:	0f 84 12 ff ff ff    	je     4055f0 <InitA+0x1b0>
  4056de:	f2 41 0f 10 44 c7 10 	movsd  0x10(%r15,%rax,8),%xmm0
  4056e5:	f2 41 0f 58 44 c5 10 	addsd  0x10(%r13,%rax,8),%xmm0
  4056ec:	f2 41 0f 11 44 c5 10 	movsd  %xmm0,0x10(%r13,%rax,8)
  4056f3:	e9 f8 fe ff ff       	jmpq   4055f0 <InitA+0x1b0>
  4056f8:	48 83 c4 18          	add    $0x18,%rsp
  4056fc:	5b                   	pop    %rbx
  4056fd:	41 5c                	pop    %r12
  4056ff:	41 5d                	pop    %r13
  405701:	41 5e                	pop    %r14
  405703:	41 5f                	pop    %r15
  405705:	5d                   	pop    %rbp
  405706:	c3                   	retq   
  405707:	66 0f 1f 84 00 00 00 	nopw   0x0(%rax,%rax,1)
  40570e:	00 00 

0000000000405710 <PrintA>:
  405710:	41 57                	push   %r15
  405712:	41 56                	push   %r14
  405714:	41 55                	push   %r13
  405716:	41 54                	push   %r12
  405718:	53                   	push   %rbx
  405719:	48 8b 1d 10 3a 20 00 	mov    0x203a10(%rip),%rbx        # 609130 <n>
  405720:	48 85 db             	test   %rbx,%rbx
  405723:	0f 8e b8 00 00 00    	jle    4057e1 <PrintA+0xd1>
  405729:	49 c7 c6 f8 ff ff ff 	mov    $0xfffffffffffffff8,%r14
  405730:	49 c7 c7 b0 ff ff ff 	mov    $0xffffffffffffffb0,%r15
  405737:	45 31 e4             	xor    %r12d,%r12d
  40573a:	eb 22                	jmp    40575e <PrintA+0x4e>
  40573c:	0f 1f 40 00          	nopl   0x0(%rax)
  405740:	bf 0a 00 00 00       	mov    $0xa,%edi
  405745:	e8 26 b7 ff ff       	callq  400e70 <putchar@plt>
  40574a:	49 83 c4 01          	add    $0x1,%r12
  40574e:	48 8b 1d db 39 20 00 	mov    0x2039db(%rip),%rbx        # 609130 <n>
  405755:	49 39 dc             	cmp    %rbx,%r12
  405758:	0f 8d 83 00 00 00    	jge    4057e1 <PrintA+0xd1>
  40575e:	64 49 8b 0e          	mov    %fs:(%r14),%rcx
  405762:	64 49 8b 37          	mov    %fs:(%r15),%rsi
  405766:	0f 31                	rdtsc  
  405768:	48 c1 e2 20          	shl    $0x20,%rdx
  40576c:	48 09 c2             	or     %rax,%rdx
  40576f:	48 29 ca             	sub    %rcx,%rdx
  405772:	48 39 f2             	cmp    %rsi,%rdx
  405775:	72 07                	jb     40577e <PrintA+0x6e>
  405777:	31 c0                	xor    %eax,%eax
  405779:	e8 b2 19 00 00       	callq  407130 <concord_rdtsc_func>
  40577e:	48 85 db             	test   %rbx,%rbx
  405781:	7e bd                	jle    405740 <PrintA+0x30>
  405783:	45 31 ed             	xor    %r13d,%r13d
  405786:	eb 37                	jmp    4057bf <PrintA+0xaf>
  405788:	0f 1f 84 00 00 00 00 	nopl   0x0(%rax,%rax,1)
  40578f:	00 
  405790:	48 8b 05 51 3c 20 00 	mov    0x203c51(%rip),%rax        # 6093e8 <a>
  405797:	49 0f af dd          	imul   %r13,%rbx
  40579b:	4c 01 e3             	add    %r12,%rbx
  40579e:	f2 0f 10 04 d8       	movsd  (%rax,%rbx,8),%xmm0
  4057a3:	bf c3 79 40 00       	mov    $0x4079c3,%edi
  4057a8:	b0 01                	mov    $0x1,%al
  4057aa:	e8 61 b7 ff ff       	callq  400f10 <printf@plt>
  4057af:	49 83 c5 01          	add    $0x1,%r13
  4057b3:	48 8b 1d 76 39 20 00 	mov    0x203976(%rip),%rbx        # 609130 <n>
  4057ba:	49 39 dd             	cmp    %rbx,%r13
  4057bd:	7d 81                	jge    405740 <PrintA+0x30>
  4057bf:	64 49 8b 0e          	mov    %fs:(%r14),%rcx
  4057c3:	64 49 8b 37          	mov    %fs:(%r15),%rsi
  4057c7:	0f 31                	rdtsc  
  4057c9:	48 c1 e2 20          	shl    $0x20,%rdx
  4057cd:	48 09 c2             	or     %rax,%rdx
  4057d0:	48 29 ca             	sub    %rcx,%rdx
  4057d3:	48 39 f2             	cmp    %rsi,%rdx
  4057d6:	72 b8                	jb     405790 <PrintA+0x80>
  4057d8:	31 c0                	xor    %eax,%eax
  4057da:	e8 51 19 00 00       	callq  407130 <concord_rdtsc_func>
  4057df:	eb af                	jmp    405790 <PrintA+0x80>
  4057e1:	5b                   	pop    %rbx
  4057e2:	41 5c                	pop    %r12
  4057e4:	41 5d                	pop    %r13
  4057e6:	41 5e                	pop    %r14
  4057e8:	41 5f                	pop    %r15
  4057ea:	c3                   	retq   
  4057eb:	0f 1f 44 00 00       	nopl   0x0(%rax,%rax,1)

00000000004057f0 <TouchA>:
  4057f0:	55                   	push   %rbp
  4057f1:	41 57                	push   %r15
  4057f3:	41 56                	push   %r14
  4057f5:	41 55                	push   %r13
  4057f7:	41 54                	push   %r12
  4057f9:	53                   	push   %rbx
  4057fa:	48 83 ec 78          	sub    $0x78,%rsp
  4057fe:	48 8b 1d 2b 39 20 00 	mov    0x20392b(%rip),%rbx        # 609130 <n>
  405805:	48 85 db             	test   %rbx,%rbx
  405808:	0f 8e 0f 03 00 00    	jle    405b1d <TouchA+0x32d>
  40580e:	49 89 f6             	mov    %rsi,%r14
  405811:	49 89 fc             	mov    %rdi,%r12
  405814:	4c 8b 2d 1d 39 20 00 	mov    0x20391d(%rip),%r13        # 609138 <P>
  40581b:	4c 8b 3d c6 3b 20 00 	mov    0x203bc6(%rip),%r15        # 6093e8 <a>
  405822:	48 89 d8             	mov    %rbx,%rax
  405825:	48 0f af c7          	imul   %rdi,%rax
  405829:	48 8d 0c fd 00 00 00 	lea    0x0(,%rdi,8),%rcx
  405830:	00 
  405831:	48 89 4c 24 28       	mov    %rcx,0x28(%rsp)
  405836:	48 8d 0c dd 00 00 00 	lea    0x0(,%rbx,8),%rcx
  40583d:	00 
  40583e:	48 89 4c 24 30       	mov    %rcx,0x30(%rsp)
  405843:	49 8d 0c c7          	lea    (%r15,%rax,8),%rcx
  405847:	48 89 4c 24 20       	mov    %rcx,0x20(%rsp)
  40584c:	48 c1 e0 04          	shl    $0x4,%rax
  405850:	48 89 44 24 38       	mov    %rax,0x38(%rsp)
  405855:	66 0f 57 c0          	xorpd  %xmm0,%xmm0
  405859:	49 c7 c2 f8 ff ff ff 	mov    $0xfffffffffffffff8,%r10
  405860:	49 c7 c3 b0 ff ff ff 	mov    $0xffffffffffffffb0,%r11
  405867:	31 c0                	xor    %eax,%eax
  405869:	48 89 04 24          	mov    %rax,(%rsp)
  40586d:	31 c0                	xor    %eax,%eax
  40586f:	48 89 44 24 08       	mov    %rax,0x8(%rsp)
  405874:	48 89 74 24 58       	mov    %rsi,0x58(%rsp)
  405879:	48 89 7c 24 50       	mov    %rdi,0x50(%rsp)
  40587e:	4c 89 6c 24 48       	mov    %r13,0x48(%rsp)
  405883:	eb 27                	jmp    4058ac <TouchA+0xbc>
  405885:	66 2e 0f 1f 84 00 00 	nopw   %cs:0x0(%rax,%rax,1)
  40588c:	00 00 00 
  40588f:	90                   	nop
  405890:	4c 8b 7c 24 40       	mov    0x40(%rsp),%r15
  405895:	48 8b 44 24 38       	mov    0x38(%rsp),%rax
  40589a:	49 01 c7             	add    %rax,%r15
  40589d:	48 01 44 24 20       	add    %rax,0x20(%rsp)
  4058a2:	48 39 1c 24          	cmp    %rbx,(%rsp)
  4058a6:	0f 8d 75 02 00 00    	jge    405b21 <TouchA+0x331>
  4058ac:	64 49 8b 0a          	mov    %fs:(%r10),%rcx
  4058b0:	64 49 8b 33          	mov    %fs:(%r11),%rsi
  4058b4:	0f 31                	rdtsc  
  4058b6:	48 c1 e2 20          	shl    $0x20,%rdx
  4058ba:	48 09 c2             	or     %rax,%rdx
  4058bd:	48 29 ca             	sub    %rcx,%rdx
  4058c0:	48 39 f2             	cmp    %rsi,%rdx
  4058c3:	72 21                	jb     4058e6 <TouchA+0xf6>
  4058c5:	31 c0                	xor    %eax,%eax
  4058c7:	f2 0f 11 44 24 18    	movsd  %xmm0,0x18(%rsp)
  4058cd:	e8 5e 18 00 00       	callq  407130 <concord_rdtsc_func>
  4058d2:	f2 0f 10 44 24 18    	movsd  0x18(%rsp),%xmm0
  4058d8:	49 c7 c3 b0 ff ff ff 	mov    $0xffffffffffffffb0,%r11
  4058df:	49 c7 c2 f8 ff ff ff 	mov    $0xfffffffffffffff8,%r10
  4058e6:	48 8b 4c 24 08       	mov    0x8(%rsp),%rcx
  4058eb:	48 83 c9 01          	or     $0x1,%rcx
  4058ef:	48 89 c8             	mov    %rcx,%rax
  4058f2:	48 89 4c 24 60       	mov    %rcx,0x60(%rsp)
  4058f7:	49 0f af cc          	imul   %r12,%rcx
  4058fb:	48 89 4c 24 10       	mov    %rcx,0x10(%rsp)
  405900:	48 39 0c 24          	cmp    %rcx,(%rsp)
  405904:	0f 8d 96 00 00 00    	jge    4059a0 <TouchA+0x1b0>
  40590a:	31 c0                	xor    %eax,%eax
  40590c:	4d 89 f8             	mov    %r15,%r8
  40590f:	45 31 c9             	xor    %r9d,%r9d
  405912:	eb 1e                	jmp    405932 <TouchA+0x142>
  405914:	66 2e 0f 1f 84 00 00 	nopw   %cs:0x0(%rax,%rax,1)
  40591b:	00 00 00 
  40591e:	66 90                	xchg   %ax,%ax
  405920:	49 83 c1 01          	add    $0x1,%r9
  405924:	4c 03 44 24 28       	add    0x28(%rsp),%r8
  405929:	48 39 d8             	cmp    %rbx,%rax
  40592c:	0f 8d 86 00 00 00    	jge    4059b8 <TouchA+0x1c8>
  405932:	48 89 c7             	mov    %rax,%rdi
  405935:	48 8b 44 24 08       	mov    0x8(%rsp),%rax
  40593a:	4c 01 c8             	add    %r9,%rax
  40593d:	48 99                	cqto   
  40593f:	49 f7 fd             	idiv   %r13
  405942:	4a 8d 04 27          	lea    (%rdi,%r12,1),%rax
  405946:	4c 39 f2             	cmp    %r14,%rdx
  405949:	75 d5                	jne    405920 <TouchA+0x130>
  40594b:	4c 89 c2             	mov    %r8,%rdx
  40594e:	48 8b 2c 24          	mov    (%rsp),%rbp
  405952:	48 39 c7             	cmp    %rax,%rdi
  405955:	7d c9                	jge    405920 <TouchA+0x130>
  405957:	66 0f 1f 84 00 00 00 	nopw   0x0(%rax,%rax,1)
  40595e:	00 00 
  405960:	b9 01 00 00 00       	mov    $0x1,%ecx
  405965:	66 2e 0f 1f 84 00 00 	nopw   %cs:0x0(%rax,%rax,1)
  40596c:	00 00 00 
  40596f:	90                   	nop
  405970:	f2 0f 58 44 ca f8    	addsd  -0x8(%rdx,%rcx,8),%xmm0
  405976:	48 8d 34 0f          	lea    (%rdi,%rcx,1),%rsi
  40597a:	48 39 c6             	cmp    %rax,%rsi
  40597d:	7d 09                	jge    405988 <TouchA+0x198>
  40597f:	48 83 c1 01          	add    $0x1,%rcx
  405983:	48 39 de             	cmp    %rbx,%rsi
  405986:	7c e8                	jl     405970 <TouchA+0x180>
  405988:	48 83 c5 01          	add    $0x1,%rbp
  40598c:	48 3b 6c 24 10       	cmp    0x10(%rsp),%rbp
  405991:	7d 8d                	jge    405920 <TouchA+0x130>
  405993:	48 03 54 24 30       	add    0x30(%rsp),%rdx
  405998:	48 39 dd             	cmp    %rbx,%rbp
  40599b:	7c c3                	jl     405960 <TouchA+0x170>
  40599d:	eb 81                	jmp    405920 <TouchA+0x130>
  40599f:	90                   	nop
  4059a0:	31 c0                	xor    %eax,%eax
  4059a2:	66 2e 0f 1f 84 00 00 	nopw   %cs:0x0(%rax,%rax,1)
  4059a9:	00 00 00 
  4059ac:	0f 1f 40 00          	nopl   0x0(%rax)
  4059b0:	4c 01 e0             	add    %r12,%rax
  4059b3:	48 39 d8             	cmp    %rbx,%rax
  4059b6:	7c f8                	jl     4059b0 <TouchA+0x1c0>
  4059b8:	48 8b 4c 24 08       	mov    0x8(%rsp),%rcx
  4059bd:	48 83 c1 02          	add    $0x2,%rcx
  4059c1:	48 89 c8             	mov    %rcx,%rax
  4059c4:	48 89 4c 24 08       	mov    %rcx,0x8(%rsp)
  4059c9:	49 0f af cc          	imul   %r12,%rcx
  4059cd:	48 89 c8             	mov    %rcx,%rax
  4059d0:	48 89 0c 24          	mov    %rcx,(%rsp)
  4059d4:	48 8b 44 24 10       	mov    0x10(%rsp),%rax
  4059d9:	48 39 c8             	cmp    %rcx,%rax
  4059dc:	4c 89 7c 24 40       	mov    %r15,0x40(%rsp)
  4059e1:	0f 8d 19 01 00 00    	jge    405b00 <TouchA+0x310>
  4059e7:	48 39 d8             	cmp    %rbx,%rax
  4059ea:	0f 8d 10 01 00 00    	jge    405b00 <TouchA+0x310>
  4059f0:	45 31 ff             	xor    %r15d,%r15d
  4059f3:	48 8b 4c 24 20       	mov    0x20(%rsp),%rcx
  4059f8:	31 f6                	xor    %esi,%esi
  4059fa:	eb 2f                	jmp    405a2b <TouchA+0x23b>
  4059fc:	0f 1f 40 00          	nopl   0x0(%rax)
  405a00:	48 8b 74 24 68       	mov    0x68(%rsp),%rsi
  405a05:	48 83 c6 01          	add    $0x1,%rsi
  405a09:	48 8b 4c 24 70       	mov    0x70(%rsp),%rcx
  405a0e:	48 03 4c 24 28       	add    0x28(%rsp),%rcx
  405a13:	49 39 df             	cmp    %rbx,%r15
  405a16:	4c 8b 74 24 58       	mov    0x58(%rsp),%r14
  405a1b:	4c 8b 64 24 50       	mov    0x50(%rsp),%r12
  405a20:	4c 8b 6c 24 48       	mov    0x48(%rsp),%r13
  405a25:	0f 8d 65 fe ff ff    	jge    405890 <TouchA+0xa0>
  405a2b:	4c 89 fd             	mov    %r15,%rbp
  405a2e:	48 8b 44 24 60       	mov    0x60(%rsp),%rax
  405a33:	48 01 f0             	add    %rsi,%rax
  405a36:	48 99                	cqto   
  405a38:	49 f7 fd             	idiv   %r13
  405a3b:	4d 01 e7             	add    %r12,%r15
  405a3e:	4c 39 f2             	cmp    %r14,%rdx
  405a41:	48 89 4c 24 70       	mov    %rcx,0x70(%rsp)
  405a46:	48 89 74 24 68       	mov    %rsi,0x68(%rsp)
  405a4b:	75 b3                	jne    405a00 <TouchA+0x210>
  405a4d:	4c 39 fd             	cmp    %r15,%rbp
  405a50:	7d ae                	jge    405a00 <TouchA+0x210>
  405a52:	49 89 cd             	mov    %rcx,%r13
  405a55:	4c 8b 74 24 10       	mov    0x10(%rsp),%r14
  405a5a:	66 0f 1f 44 00 00    	nopw   0x0(%rax,%rax,1)
  405a60:	41 bc 02 00 00 00    	mov    $0x2,%r12d
  405a66:	66 0f 28 c8          	movapd %xmm0,%xmm1
  405a6a:	66 0f 1f 44 00 00    	nopw   0x0(%rax,%rax,1)
  405a70:	64 49 8b 0a          	mov    %fs:(%r10),%rcx
  405a74:	64 49 8b 33          	mov    %fs:(%r11),%rsi
  405a78:	0f 31                	rdtsc  
  405a7a:	48 c1 e2 20          	shl    $0x20,%rdx
  405a7e:	48 09 c2             	or     %rax,%rdx
  405a81:	48 29 ca             	sub    %rcx,%rdx
  405a84:	48 39 f2             	cmp    %rsi,%rdx
  405a87:	72 21                	jb     405aaa <TouchA+0x2ba>
  405a89:	31 c0                	xor    %eax,%eax
  405a8b:	f2 0f 11 4c 24 18    	movsd  %xmm1,0x18(%rsp)
  405a91:	e8 9a 16 00 00       	callq  407130 <concord_rdtsc_func>
  405a96:	f2 0f 10 4c 24 18    	movsd  0x18(%rsp),%xmm1
  405a9c:	49 c7 c3 b0 ff ff ff 	mov    $0xffffffffffffffb0,%r11
  405aa3:	49 c7 c2 f8 ff ff ff 	mov    $0xfffffffffffffff8,%r10
  405aaa:	66 0f 28 c1          	movapd %xmm1,%xmm0
  405aae:	f2 43 0f 58 44 e5 f0 	addsd  -0x10(%r13,%r12,8),%xmm0
  405ab5:	49 8d 04 2c          	lea    (%r12,%rbp,1),%rax
  405ab9:	4c 39 f8             	cmp    %r15,%rax
  405abc:	7d 14                	jge    405ad2 <TouchA+0x2e2>
  405abe:	f2 43 0f 10 4c e5 f8 	movsd  -0x8(%r13,%r12,8),%xmm1
  405ac5:	f2 0f 58 c8          	addsd  %xmm0,%xmm1
  405ac9:	49 83 c4 02          	add    $0x2,%r12
  405acd:	48 39 d8             	cmp    %rbx,%rax
  405ad0:	7c 9e                	jl     405a70 <TouchA+0x280>
  405ad2:	49 83 c6 01          	add    $0x1,%r14
  405ad6:	4c 3b 34 24          	cmp    (%rsp),%r14
  405ada:	0f 8d 20 ff ff ff    	jge    405a00 <TouchA+0x210>
  405ae0:	4c 03 6c 24 30       	add    0x30(%rsp),%r13
  405ae5:	49 39 de             	cmp    %rbx,%r14
  405ae8:	0f 8c 72 ff ff ff    	jl     405a60 <TouchA+0x270>
  405aee:	e9 0d ff ff ff       	jmpq   405a00 <TouchA+0x210>
  405af3:	66 2e 0f 1f 84 00 00 	nopw   %cs:0x0(%rax,%rax,1)
  405afa:	00 00 00 
  405afd:	0f 1f 00             	nopl   (%rax)
  405b00:	31 c0                	xor    %eax,%eax
  405b02:	66 2e 0f 1f 84 00 00 	nopw   %cs:0x0(%rax,%rax,1)
  405b09:	00 00 00 
  405b0c:	0f 1f 40 00          	nopl   0x0(%rax)
  405b10:	4c 01 e0             	add    %r12,%rax
  405b13:	48 39 d8             	cmp    %rbx,%rax
  405b16:	7c f8                	jl     405b10 <TouchA+0x320>
  405b18:	e9 73 fd ff ff       	jmpq   405890 <TouchA+0xa0>
  405b1d:	66 0f 57 c0          	xorpd  %xmm0,%xmm0
  405b21:	48 83 c4 78          	add    $0x78,%rsp
  405b25:	5b                   	pop    %rbx
  405b26:	41 5c                	pop    %r12
  405b28:	41 5d                	pop    %r13
  405b2a:	41 5e                	pop    %r14
  405b2c:	41 5f                	pop    %r15
  405b2e:	5d                   	pop    %rbp
  405b2f:	c3                   	retq   

0000000000405b30 <lu0>:
  405b30:	55                   	push   %rbp
  405b31:	41 57                	push   %r15
  405b33:	41 56                	push   %r14
  405b35:	41 55                	push   %r13
  405b37:	41 54                	push   %r12
  405b39:	53                   	push   %rbx
  405b3a:	48 83 ec 78          	sub    $0x78,%rsp
  405b3e:	48 85 f6             	test   %rsi,%rsi
  405b41:	0f 8e e9 04 00 00    	jle    406030 <lu0+0x500>
  405b47:	49 89 d2             	mov    %rdx,%r10
  405b4a:	49 89 fe             	mov    %rdi,%r14
  405b4d:	48 8d 4e fe          	lea    -0x2(%rsi),%rcx
  405b51:	89 f0                	mov    %esi,%eax
  405b53:	83 e0 01             	and    $0x1,%eax
  405b56:	48 89 44 24 08       	mov    %rax,0x8(%rsp)
  405b5b:	49 89 c3             	mov    %rax,%r11
  405b5e:	49 83 f3 01          	xor    $0x1,%r11
  405b62:	48 c1 e2 04          	shl    $0x4,%rdx
  405b66:	4a 8d 04 d5 00 00 00 	lea    0x0(,%r10,8),%rax
  405b6d:	00 
  405b6e:	48 89 04 24          	mov    %rax,(%rsp)
  405b72:	4a 8d 2c d7          	lea    (%rdi,%r10,8),%rbp
  405b76:	48 8d 42 10          	lea    0x10(%rdx),%rax
  405b7a:	48 89 44 24 70       	mov    %rax,0x70(%rsp)
  405b7f:	49 89 f7             	mov    %rsi,%r15
  405b82:	4d 29 df             	sub    %r11,%r15
  405b85:	48 8d 46 ff          	lea    -0x1(%rsi),%rax
  405b89:	48 89 44 24 40       	mov    %rax,0x40(%rsp)
  405b8e:	49 8d 04 32          	lea    (%r10,%rsi,1),%rax
  405b92:	48 8d 04 c7          	lea    (%rdi,%rax,8),%rax
  405b96:	48 83 c0 f0          	add    $0xfffffffffffffff0,%rax
  405b9a:	48 89 44 24 58       	mov    %rax,0x58(%rsp)
  405b9f:	48 89 54 24 20       	mov    %rdx,0x20(%rsp)
  405ba4:	48 8d 04 17          	lea    (%rdi,%rdx,1),%rax
  405ba8:	48 89 44 24 18       	mov    %rax,0x18(%rsp)
  405bad:	49 89 f5             	mov    %rsi,%r13
  405bb0:	49 83 e5 fe          	and    $0xfffffffffffffffe,%r13
  405bb4:	4a 8d 04 56          	lea    (%rsi,%r10,2),%rax
  405bb8:	48 8d 04 c7          	lea    (%rdi,%rax,8),%rax
  405bbc:	48 83 c0 f0          	add    $0xfffffffffffffff0,%rax
  405bc0:	48 89 44 24 50       	mov    %rax,0x50(%rsp)
  405bc5:	b8 08 00 00 00       	mov    $0x8,%eax
  405bca:	48 89 44 24 30       	mov    %rax,0x30(%rsp)
  405bcf:	48 89 4c 24 10       	mov    %rcx,0x10(%rsp)
  405bd4:	48 89 4c 24 38       	mov    %rcx,0x38(%rsp)
  405bd9:	48 89 fb             	mov    %rdi,%rbx
  405bdc:	31 c0                	xor    %eax,%eax
  405bde:	48 89 44 24 28       	mov    %rax,0x28(%rsp)
  405be3:	45 31 c9             	xor    %r9d,%r9d
  405be6:	4c 89 5c 24 48       	mov    %r11,0x48(%rsp)
  405beb:	4c 89 54 24 68       	mov    %r10,0x68(%rsp)
  405bf0:	48 89 74 24 60       	mov    %rsi,0x60(%rsp)
  405bf5:	eb 56                	jmp    405c4d <lu0+0x11d>
  405bf7:	66 0f 1f 84 00 00 00 	nopw   0x0(%rax,%rax,1)
  405bfe:	00 00 
  405c00:	48 83 44 24 28 10    	addq   $0x10,0x28(%rsp)
  405c06:	48 8b 4c 24 70       	mov    0x70(%rsp),%rcx
  405c0b:	48 01 cd             	add    %rcx,%rbp
  405c0e:	48 01 cb             	add    %rcx,%rbx
  405c11:	49 83 c7 fe          	add    $0xfffffffffffffffe,%r15
  405c15:	48 83 44 24 40 fe    	addq   $0xfffffffffffffffe,0x40(%rsp)
  405c1b:	48 8b 44 24 20       	mov    0x20(%rsp),%rax
  405c20:	48 01 44 24 58       	add    %rax,0x58(%rsp)
  405c25:	48 83 44 24 30 10    	addq   $0x10,0x30(%rsp)
  405c2b:	48 01 4c 24 18       	add    %rcx,0x18(%rsp)
  405c30:	49 83 c5 fe          	add    $0xfffffffffffffffe,%r13
  405c34:	48 83 44 24 38 fe    	addq   $0xfffffffffffffffe,0x38(%rsp)
  405c3a:	48 01 44 24 50       	add    %rax,0x50(%rsp)
  405c3f:	49 39 f1             	cmp    %rsi,%r9
  405c42:	4c 8b 5c 24 48       	mov    0x48(%rsp),%r11
  405c47:	0f 84 e3 03 00 00    	je     406030 <lu0+0x500>
  405c4d:	4d 89 cc             	mov    %r9,%r12
  405c50:	48 c7 c0 f8 ff ff ff 	mov    $0xfffffffffffffff8,%rax
  405c57:	64 48 8b 08          	mov    %fs:(%rax),%rcx
  405c5b:	48 c7 c0 b0 ff ff ff 	mov    $0xffffffffffffffb0,%rax
  405c62:	64 48 8b 38          	mov    %fs:(%rax),%rdi
  405c66:	0f 31                	rdtsc  
  405c68:	48 c1 e2 20          	shl    $0x20,%rdx
  405c6c:	48 09 c2             	or     %rax,%rdx
  405c6f:	48 29 ca             	sub    %rcx,%rdx
  405c72:	48 39 fa             	cmp    %rdi,%rdx
  405c75:	72 16                	jb     405c8d <lu0+0x15d>
  405c77:	31 c0                	xor    %eax,%eax
  405c79:	e8 b2 14 00 00       	callq  407130 <concord_rdtsc_func>
  405c7e:	4c 8b 5c 24 48       	mov    0x48(%rsp),%r11
  405c83:	48 8b 74 24 60       	mov    0x60(%rsp),%rsi
  405c88:	4c 8b 54 24 68       	mov    0x68(%rsp),%r10
  405c8d:	4d 89 e0             	mov    %r12,%r8
  405c90:	49 83 c8 01          	or     $0x1,%r8
  405c94:	49 39 f0             	cmp    %rsi,%r8
  405c97:	0f 8d c3 01 00 00    	jge    405e60 <lu0+0x330>
  405c9d:	4c 89 e7             	mov    %r12,%rdi
  405ca0:	49 0f af fa          	imul   %r10,%rdi
  405ca4:	4e 8d 0c 27          	lea    (%rdi,%r12,1),%r9
  405ca8:	4c 89 e0             	mov    %r12,%rax
  405cab:	48 f7 d0             	not    %rax
  405cae:	48 01 f0             	add    %rsi,%rax
  405cb1:	48 85 c0             	test   %rax,%rax
  405cb4:	0f 8e 16 01 00 00    	jle    405dd0 <lu0+0x2a0>
  405cba:	48 89 ea             	mov    %rbp,%rdx
  405cbd:	4c 89 c1             	mov    %r8,%rcx
  405cc0:	4c 39 64 24 10       	cmp    %r12,0x10(%rsp)
  405cc5:	75 2a                	jne    405cf1 <lu0+0x1c1>
  405cc7:	4c 01 c7             	add    %r8,%rdi
  405cca:	31 c0                	xor    %eax,%eax
  405ccc:	48 8b 54 24 40       	mov    0x40(%rsp),%rdx
  405cd1:	e9 c8 00 00 00       	jmpq   405d9e <lu0+0x26e>
  405cd6:	66 2e 0f 1f 84 00 00 	nopw   %cs:0x0(%rax,%rax,1)
  405cdd:	00 00 00 
  405ce0:	48 83 c1 01          	add    $0x1,%rcx
  405ce4:	48 03 14 24          	add    (%rsp),%rdx
  405ce8:	48 39 f1             	cmp    %rsi,%rcx
  405ceb:	0f 84 6f 01 00 00    	je     405e60 <lu0+0x330>
  405cf1:	48 89 c8             	mov    %rcx,%rax
  405cf4:	49 0f af c2          	imul   %r10,%rax
  405cf8:	4c 01 e0             	add    %r12,%rax
  405cfb:	f2 41 0f 10 04 c6    	movsd  (%r14,%rax,8),%xmm0
  405d01:	f2 43 0f 5e 04 ce    	divsd  (%r14,%r9,8),%xmm0
  405d07:	f2 41 0f 11 04 c6    	movsd  %xmm0,(%r14,%rax,8)
  405d0d:	bf 01 00 00 00       	mov    $0x1,%edi
  405d12:	66 2e 0f 1f 84 00 00 	nopw   %cs:0x0(%rax,%rax,1)
  405d19:	00 00 00 
  405d1c:	0f 1f 40 00          	nopl   0x0(%rax)
  405d20:	48 89 f8             	mov    %rdi,%rax
  405d23:	f2 0f 10 0c fb       	movsd  (%rbx,%rdi,8),%xmm1
  405d28:	f2 0f 59 c8          	mulsd  %xmm0,%xmm1
  405d2c:	f2 0f 10 14 fa       	movsd  (%rdx,%rdi,8),%xmm2
  405d31:	f2 0f 5c d1          	subsd  %xmm1,%xmm2
  405d35:	f2 0f 10 4c fa 08    	movsd  0x8(%rdx,%rdi,8),%xmm1
  405d3b:	f2 0f 11 14 fa       	movsd  %xmm2,(%rdx,%rdi,8)
  405d40:	f2 0f 10 54 fb 08    	movsd  0x8(%rbx,%rdi,8),%xmm2
  405d46:	f2 0f 59 d0          	mulsd  %xmm0,%xmm2
  405d4a:	f2 0f 5c ca          	subsd  %xmm2,%xmm1
  405d4e:	f2 0f 11 4c fa 08    	movsd  %xmm1,0x8(%rdx,%rdi,8)
  405d54:	48 83 c7 02          	add    $0x2,%rdi
  405d58:	49 39 ff             	cmp    %rdi,%r15
  405d5b:	75 c3                	jne    405d20 <lu0+0x1f0>
  405d5d:	4d 85 db             	test   %r11,%r11
  405d60:	0f 84 7a ff ff ff    	je     405ce0 <lu0+0x1b0>
  405d66:	f2 0f 10 4c c2 10    	movsd  0x10(%rdx,%rax,8),%xmm1
  405d6c:	f2 0f 59 44 c3 10    	mulsd  0x10(%rbx,%rax,8),%xmm0
  405d72:	f2 0f 5c c8          	subsd  %xmm0,%xmm1
  405d76:	f2 0f 11 4c c2 10    	movsd  %xmm1,0x10(%rdx,%rax,8)
  405d7c:	e9 5f ff ff ff       	jmpq   405ce0 <lu0+0x1b0>
  405d81:	66 2e 0f 1f 84 00 00 	nopw   %cs:0x0(%rax,%rax,1)
  405d88:	00 00 00 
  405d8b:	0f 1f 44 00 00       	nopl   0x0(%rax,%rax,1)
  405d90:	48 03 04 24          	add    (%rsp),%rax
  405d94:	48 83 c2 ff          	add    $0xffffffffffffffff,%rdx
  405d98:	0f 84 c2 00 00 00    	je     405e60 <lu0+0x330>
  405d9e:	48 8b 4c 24 58       	mov    0x58(%rsp),%rcx
  405da3:	f2 0f 10 04 01       	movsd  (%rcx,%rax,1),%xmm0
  405da8:	f2 43 0f 5e 04 ce    	divsd  (%r14,%r9,8),%xmm0
  405dae:	f2 0f 11 04 01       	movsd  %xmm0,(%rcx,%rax,1)
  405db3:	4d 85 db             	test   %r11,%r11
  405db6:	74 d8                	je     405d90 <lu0+0x260>
  405db8:	f2 0f 10 4c 05 08    	movsd  0x8(%rbp,%rax,1),%xmm1
  405dbe:	f2 41 0f 59 04 fe    	mulsd  (%r14,%rdi,8),%xmm0
  405dc4:	f2 0f 5c c8          	subsd  %xmm0,%xmm1
  405dc8:	f2 0f 11 4c 05 08    	movsd  %xmm1,0x8(%rbp,%rax,1)
  405dce:	eb c0                	jmp    405d90 <lu0+0x260>
  405dd0:	4c 89 c0             	mov    %r8,%rax
  405dd3:	48 83 7c 24 08 00    	cmpq   $0x0,0x8(%rsp)
  405dd9:	75 21                	jne    405dfc <lu0+0x2cc>
  405ddb:	4c 89 c0             	mov    %r8,%rax
  405dde:	49 0f af c2          	imul   %r10,%rax
  405de2:	4c 01 e0             	add    %r12,%rax
  405de5:	f2 41 0f 10 04 c6    	movsd  (%r14,%rax,8),%xmm0
  405deb:	f2 43 0f 5e 04 ce    	divsd  (%r14,%r9,8),%xmm0
  405df1:	f2 41 0f 11 04 c6    	movsd  %xmm0,(%r14,%rax,8)
  405df7:	49 8d 44 24 02       	lea    0x2(%r12),%rax
  405dfc:	4c 39 64 24 10       	cmp    %r12,0x10(%rsp)
  405e01:	74 5d                	je     405e60 <lu0+0x330>
  405e03:	4c 89 d2             	mov    %r10,%rdx
  405e06:	48 0f af d0          	imul   %rax,%rdx
  405e0a:	4c 01 e2             	add    %r12,%rdx
  405e0d:	48 89 f1             	mov    %rsi,%rcx
  405e10:	48 29 c1             	sub    %rax,%rcx
  405e13:	48 83 c0 01          	add    $0x1,%rax
  405e17:	48 0f af 04 24       	imul   (%rsp),%rax
  405e1c:	48 03 44 24 28       	add    0x28(%rsp),%rax
  405e21:	4c 89 f7             	mov    %r14,%rdi
  405e24:	66 2e 0f 1f 84 00 00 	nopw   %cs:0x0(%rax,%rax,1)
  405e2b:	00 00 00 
  405e2e:	66 90                	xchg   %ax,%ax
  405e30:	f2 0f 10 04 d7       	movsd  (%rdi,%rdx,8),%xmm0
  405e35:	f2 43 0f 5e 04 ce    	divsd  (%r14,%r9,8),%xmm0
  405e3b:	f2 0f 11 04 d7       	movsd  %xmm0,(%rdi,%rdx,8)
  405e40:	f2 0f 10 04 07       	movsd  (%rdi,%rax,1),%xmm0
  405e45:	f2 43 0f 5e 04 ce    	divsd  (%r14,%r9,8),%xmm0
  405e4b:	f2 0f 11 04 07       	movsd  %xmm0,(%rdi,%rax,1)
  405e50:	48 03 7c 24 20       	add    0x20(%rsp),%rdi
  405e55:	48 83 c1 fe          	add    $0xfffffffffffffffe,%rcx
  405e59:	75 d5                	jne    405e30 <lu0+0x300>
  405e5b:	0f 1f 44 00 00       	nopl   0x0(%rax,%rax,1)
  405e60:	4d 8d 4c 24 02       	lea    0x2(%r12),%r9
  405e65:	49 39 f1             	cmp    %rsi,%r9
  405e68:	0f 8d 92 fd ff ff    	jge    405c00 <lu0+0xd0>
  405e6e:	4c 89 c0             	mov    %r8,%rax
  405e71:	49 0f af c2          	imul   %r10,%rax
  405e75:	4e 8d 1c 00          	lea    (%rax,%r8,1),%r11
  405e79:	48 8b 54 24 10       	mov    0x10(%rsp),%rdx
  405e7e:	48 89 d1             	mov    %rdx,%rcx
  405e81:	4c 29 e1             	sub    %r12,%rcx
  405e84:	48 85 c9             	test   %rcx,%rcx
  405e87:	0f 8e 1b 01 00 00    	jle    405fa8 <lu0+0x478>
  405e8d:	48 89 d1             	mov    %rdx,%rcx
  405e90:	48 8b 54 24 18       	mov    0x18(%rsp),%rdx
  405e95:	4c 89 cf             	mov    %r9,%rdi
  405e98:	4c 39 c1             	cmp    %r8,%rcx
  405e9b:	75 24                	jne    405ec1 <lu0+0x391>
  405e9d:	4c 01 c8             	add    %r9,%rax
  405ea0:	31 c9                	xor    %ecx,%ecx
  405ea2:	48 8b 7c 24 38       	mov    0x38(%rsp),%rdi
  405ea7:	e9 c2 00 00 00       	jmpq   405f6e <lu0+0x43e>
  405eac:	0f 1f 40 00          	nopl   0x0(%rax)
  405eb0:	48 83 c7 01          	add    $0x1,%rdi
  405eb4:	48 03 14 24          	add    (%rsp),%rdx
  405eb8:	48 39 f7             	cmp    %rsi,%rdi
  405ebb:	0f 84 3f fd ff ff    	je     405c00 <lu0+0xd0>
  405ec1:	48 89 f8             	mov    %rdi,%rax
  405ec4:	49 0f af c2          	imul   %r10,%rax
  405ec8:	4c 01 c0             	add    %r8,%rax
  405ecb:	f2 41 0f 10 04 c6    	movsd  (%r14,%rax,8),%xmm0
  405ed1:	f2 43 0f 5e 04 de    	divsd  (%r14,%r11,8),%xmm0
  405ed7:	f2 41 0f 11 04 c6    	movsd  %xmm0,(%r14,%rax,8)
  405edd:	b9 02 00 00 00       	mov    $0x2,%ecx
  405ee2:	66 2e 0f 1f 84 00 00 	nopw   %cs:0x0(%rax,%rax,1)
  405ee9:	00 00 00 
  405eec:	0f 1f 40 00          	nopl   0x0(%rax)
  405ef0:	48 89 c8             	mov    %rcx,%rax
  405ef3:	f2 0f 10 4c cd 00    	movsd  0x0(%rbp,%rcx,8),%xmm1
  405ef9:	f2 0f 59 c8          	mulsd  %xmm0,%xmm1
  405efd:	f2 0f 10 14 ca       	movsd  (%rdx,%rcx,8),%xmm2
  405f02:	f2 0f 5c d1          	subsd  %xmm1,%xmm2
  405f06:	f2 0f 10 4c ca 08    	movsd  0x8(%rdx,%rcx,8),%xmm1
  405f0c:	f2 0f 11 14 ca       	movsd  %xmm2,(%rdx,%rcx,8)
  405f11:	f2 0f 10 54 cd 08    	movsd  0x8(%rbp,%rcx,8),%xmm2
  405f17:	f2 0f 59 d0          	mulsd  %xmm0,%xmm2
  405f1b:	f2 0f 5c ca          	subsd  %xmm2,%xmm1
  405f1f:	f2 0f 11 4c ca 08    	movsd  %xmm1,0x8(%rdx,%rcx,8)
  405f25:	48 83 c1 02          	add    $0x2,%rcx
  405f29:	49 39 cd             	cmp    %rcx,%r13
  405f2c:	75 c2                	jne    405ef0 <lu0+0x3c0>
  405f2e:	48 83 7c 24 08 00    	cmpq   $0x0,0x8(%rsp)
  405f34:	0f 84 76 ff ff ff    	je     405eb0 <lu0+0x380>
  405f3a:	f2 0f 10 4c c2 10    	movsd  0x10(%rdx,%rax,8),%xmm1
  405f40:	f2 0f 59 44 c5 10    	mulsd  0x10(%rbp,%rax,8),%xmm0
  405f46:	f2 0f 5c c8          	subsd  %xmm0,%xmm1
  405f4a:	f2 0f 11 4c c2 10    	movsd  %xmm1,0x10(%rdx,%rax,8)
  405f50:	e9 5b ff ff ff       	jmpq   405eb0 <lu0+0x380>
  405f55:	66 2e 0f 1f 84 00 00 	nopw   %cs:0x0(%rax,%rax,1)
  405f5c:	00 00 00 
  405f5f:	90                   	nop
  405f60:	48 03 0c 24          	add    (%rsp),%rcx
  405f64:	48 83 c7 ff          	add    $0xffffffffffffffff,%rdi
  405f68:	0f 84 92 fc ff ff    	je     405c00 <lu0+0xd0>
  405f6e:	48 8b 54 24 50       	mov    0x50(%rsp),%rdx
  405f73:	f2 0f 10 04 0a       	movsd  (%rdx,%rcx,1),%xmm0
  405f78:	f2 43 0f 5e 04 de    	divsd  (%r14,%r11,8),%xmm0
  405f7e:	f2 0f 11 04 0a       	movsd  %xmm0,(%rdx,%rcx,1)
  405f83:	48 83 7c 24 08 00    	cmpq   $0x0,0x8(%rsp)
  405f89:	74 d5                	je     405f60 <lu0+0x430>
  405f8b:	48 8b 54 24 18       	mov    0x18(%rsp),%rdx
  405f90:	f2 0f 10 4c 0a 10    	movsd  0x10(%rdx,%rcx,1),%xmm1
  405f96:	f2 41 0f 59 04 c6    	mulsd  (%r14,%rax,8),%xmm0
  405f9c:	f2 0f 5c c8          	subsd  %xmm0,%xmm1
  405fa0:	f2 0f 11 4c 0a 10    	movsd  %xmm1,0x10(%rdx,%rcx,1)
  405fa6:	eb b8                	jmp    405f60 <lu0+0x430>
  405fa8:	4c 89 cf             	mov    %r9,%rdi
  405fab:	48 83 7c 24 08 00    	cmpq   $0x0,0x8(%rsp)
  405fb1:	74 20                	je     405fd3 <lu0+0x4a3>
  405fb3:	4c 89 c8             	mov    %r9,%rax
  405fb6:	49 0f af c2          	imul   %r10,%rax
  405fba:	4c 01 c0             	add    %r8,%rax
  405fbd:	f2 41 0f 10 04 c6    	movsd  (%r14,%rax,8),%xmm0
  405fc3:	f2 43 0f 5e 04 de    	divsd  (%r14,%r11,8),%xmm0
  405fc9:	f2 41 0f 11 04 c6    	movsd  %xmm0,(%r14,%rax,8)
  405fcf:	49 8d 78 02          	lea    0x2(%r8),%rdi
  405fd3:	4c 39 c2             	cmp    %r8,%rdx
  405fd6:	0f 84 24 fc ff ff    	je     405c00 <lu0+0xd0>
  405fdc:	4c 89 d0             	mov    %r10,%rax
  405fdf:	48 0f af c7          	imul   %rdi,%rax
  405fe3:	49 8d 04 c6          	lea    (%r14,%rax,8),%rax
  405fe7:	48 89 f2             	mov    %rsi,%rdx
  405fea:	48 29 fa             	sub    %rdi,%rdx
  405fed:	48 83 c7 01          	add    $0x1,%rdi
  405ff1:	49 0f af fa          	imul   %r10,%rdi
  405ff5:	49 8d 3c fe          	lea    (%r14,%rdi,8),%rdi
  405ff9:	48 8b 4c 24 30       	mov    0x30(%rsp),%rcx
  405ffe:	66 90                	xchg   %ax,%ax
  406000:	f2 0f 10 04 08       	movsd  (%rax,%rcx,1),%xmm0
  406005:	f2 43 0f 5e 04 de    	divsd  (%r14,%r11,8),%xmm0
  40600b:	f2 0f 11 04 08       	movsd  %xmm0,(%rax,%rcx,1)
  406010:	f2 0f 10 04 0f       	movsd  (%rdi,%rcx,1),%xmm0
  406015:	f2 43 0f 5e 04 de    	divsd  (%r14,%r11,8),%xmm0
  40601b:	f2 0f 11 04 0f       	movsd  %xmm0,(%rdi,%rcx,1)
  406020:	48 03 4c 24 20       	add    0x20(%rsp),%rcx
  406025:	48 83 c2 fe          	add    $0xfffffffffffffffe,%rdx
  406029:	75 d5                	jne    406000 <lu0+0x4d0>
  40602b:	e9 d0 fb ff ff       	jmpq   405c00 <lu0+0xd0>
  406030:	48 83 c4 78          	add    $0x78,%rsp
  406034:	5b                   	pop    %rbx
  406035:	41 5c                	pop    %r12
  406037:	41 5d                	pop    %r13
  406039:	41 5e                	pop    %r14
  40603b:	41 5f                	pop    %r15
  40603d:	5d                   	pop    %rbp
  40603e:	c3                   	retq   
  40603f:	90                   	nop

0000000000406040 <daxpy>:
  406040:	55                   	push   %rbp
  406041:	41 57                	push   %r15
  406043:	41 56                	push   %r14
  406045:	41 55                	push   %r13
  406047:	41 54                	push   %r12
  406049:	53                   	push   %rbx
  40604a:	48 83 ec 18          	sub    $0x18,%rsp
  40604e:	48 85 d2             	test   %rdx,%rdx
  406051:	0f 8e fe 00 00 00    	jle    406155 <daxpy+0x115>
  406057:	49 89 d7             	mov    %rdx,%r15
  40605a:	49 89 f6             	mov    %rsi,%r14
  40605d:	49 89 fc             	mov    %rdi,%r12
  406060:	48 83 fa 01          	cmp    $0x1,%rdx
  406064:	75 07                	jne    40606d <daxpy+0x2d>
  406066:	31 db                	xor    %ebx,%ebx
  406068:	e9 d6 00 00 00       	jmpq   406143 <daxpy+0x103>
  40606d:	44 89 f8             	mov    %r15d,%eax
  406070:	83 e0 01             	and    $0x1,%eax
  406073:	48 89 44 24 08       	mov    %rax,0x8(%rsp)
  406078:	49 29 c7             	sub    %rax,%r15
  40607b:	48 c7 c5 f8 ff ff ff 	mov    $0xfffffffffffffff8,%rbp
  406082:	49 c7 c5 b0 ff ff ff 	mov    $0xffffffffffffffb0,%r13
  406089:	31 db                	xor    %ebx,%ebx
  40608b:	f2 0f 11 44 24 10    	movsd  %xmm0,0x10(%rsp)
  406091:	eb 77                	jmp    40610a <daxpy+0xca>
  406093:	66 2e 0f 1f 84 00 00 	nopw   %cs:0x0(%rax,%rax,1)
  40609a:	00 00 00 
  40609d:	0f 1f 00             	nopl   (%rax)
  4060a0:	f2 41 0f 10 0c de    	movsd  (%r14,%rbx,8),%xmm1
  4060a6:	f2 0f 59 c8          	mulsd  %xmm0,%xmm1
  4060aa:	f2 41 0f 58 0c dc    	addsd  (%r12,%rbx,8),%xmm1
  4060b0:	f2 41 0f 11 0c dc    	movsd  %xmm1,(%r12,%rbx,8)
  4060b6:	f2 41 0f 10 4c de 08 	movsd  0x8(%r14,%rbx,8),%xmm1
  4060bd:	f2 0f 59 c8          	mulsd  %xmm0,%xmm1
  4060c1:	f2 41 0f 58 4c dc 08 	addsd  0x8(%r12,%rbx,8),%xmm1
  4060c8:	f2 41 0f 11 4c dc 08 	movsd  %xmm1,0x8(%r12,%rbx,8)
  4060cf:	f2 41 0f 10 4c de 10 	movsd  0x10(%r14,%rbx,8),%xmm1
  4060d6:	f2 0f 59 c8          	mulsd  %xmm0,%xmm1
  4060da:	f2 41 0f 58 4c dc 10 	addsd  0x10(%r12,%rbx,8),%xmm1
  4060e1:	f2 41 0f 11 4c dc 10 	movsd  %xmm1,0x10(%r12,%rbx,8)
  4060e8:	f2 41 0f 10 4c de 18 	movsd  0x18(%r14,%rbx,8),%xmm1
  4060ef:	f2 0f 59 c8          	mulsd  %xmm0,%xmm1
  4060f3:	f2 41 0f 58 4c dc 18 	addsd  0x18(%r12,%rbx,8),%xmm1
  4060fa:	f2 41 0f 11 4c dc 18 	movsd  %xmm1,0x18(%r12,%rbx,8)
  406101:	48 83 c3 04          	add    $0x4,%rbx
  406105:	49 39 df             	cmp    %rbx,%r15
  406108:	74 31                	je     40613b <daxpy+0xfb>
  40610a:	64 48 8b 4d 00       	mov    %fs:0x0(%rbp),%rcx
  40610f:	64 49 8b 75 00       	mov    %fs:0x0(%r13),%rsi
  406114:	0f 31                	rdtsc  
  406116:	48 c1 e2 20          	shl    $0x20,%rdx
  40611a:	48 09 c2             	or     %rax,%rdx
  40611d:	48 29 ca             	sub    %rcx,%rdx
  406120:	48 39 f2             	cmp    %rsi,%rdx
  406123:	0f 82 77 ff ff ff    	jb     4060a0 <daxpy+0x60>
  406129:	31 c0                	xor    %eax,%eax
  40612b:	e8 00 10 00 00       	callq  407130 <concord_rdtsc_func>
  406130:	f2 0f 10 44 24 10    	movsd  0x10(%rsp),%xmm0
  406136:	e9 65 ff ff ff       	jmpq   4060a0 <daxpy+0x60>
  40613b:	48 83 7c 24 08 00    	cmpq   $0x0,0x8(%rsp)
  406141:	74 12                	je     406155 <daxpy+0x115>
  406143:	f2 41 0f 59 04 de    	mulsd  (%r14,%rbx,8),%xmm0
  406149:	f2 41 0f 58 04 dc    	addsd  (%r12,%rbx,8),%xmm0
  40614f:	f2 41 0f 11 04 dc    	movsd  %xmm0,(%r12,%rbx,8)
  406155:	48 83 c4 18          	add    $0x18,%rsp
  406159:	5b                   	pop    %rbx
  40615a:	41 5c                	pop    %r12
  40615c:	41 5d                	pop    %r13
  40615e:	41 5e                	pop    %r14
  406160:	41 5f                	pop    %r15
  406162:	5d                   	pop    %rbp
  406163:	c3                   	retq   
  406164:	66 2e 0f 1f 84 00 00 	nopw   %cs:0x0(%rax,%rax,1)
  40616b:	00 00 00 
  40616e:	66 90                	xchg   %ax,%ax

0000000000406170 <bdiv>:
  406170:	55                   	push   %rbp
  406171:	41 57                	push   %r15
  406173:	41 56                	push   %r14
  406175:	41 55                	push   %r13
  406177:	41 54                	push   %r12
  406179:	53                   	push   %rbx
  40617a:	48 81 ec 88 00 00 00 	sub    $0x88,%rsp
  406181:	48 89 4c 24 10       	mov    %rcx,0x10(%rsp)
  406186:	48 89 54 24 20       	mov    %rdx,0x20(%rsp)
  40618b:	48 89 74 24 18       	mov    %rsi,0x18(%rsp)
  406190:	48 89 7c 24 08       	mov    %rdi,0x8(%rsp)
  406195:	4c 89 44 24 30       	mov    %r8,0x30(%rsp)
  40619a:	4d 85 c0             	test   %r8,%r8
  40619d:	0f 8e 89 04 00 00    	jle    40662c <bdiv+0x4bc>
  4061a3:	4d 85 c9             	test   %r9,%r9
  4061a6:	0f 8e 80 04 00 00    	jle    40662c <bdiv+0x4bc>
  4061ac:	4c 8b 6c 24 30       	mov    0x30(%rsp),%r13
  4061b1:	45 89 ee             	mov    %r13d,%r14d
  4061b4:	41 83 e6 01          	and    $0x1,%r14d
  4061b8:	49 8d 41 fe          	lea    -0x2(%r9),%rax
  4061bc:	48 89 44 24 50       	mov    %rax,0x50(%rsp)
  4061c1:	49 8d 41 fd          	lea    -0x3(%r9),%rax
  4061c5:	48 89 44 24 78       	mov    %rax,0x78(%rsp)
  4061ca:	48 8b 44 24 20       	mov    0x20(%rsp),%rax
  4061cf:	4c 8b 7c 24 08       	mov    0x8(%rsp),%r15
  4061d4:	4d 8d 24 c7          	lea    (%r15,%rax,8),%r12
  4061d8:	48 89 c1             	mov    %rax,%rcx
  4061db:	48 c1 e1 04          	shl    $0x4,%rcx
  4061df:	48 8d 04 c5 00 00 00 	lea    0x0(,%rax,8),%rax
  4061e6:	00 
  4061e7:	48 89 44 24 28       	mov    %rax,0x28(%rsp)
  4061ec:	49 83 e5 fe          	and    $0xfffffffffffffffe,%r13
  4061f0:	48 8b 44 24 10       	mov    0x10(%rsp),%rax
  4061f5:	48 c1 e0 04          	shl    $0x4,%rax
  4061f9:	48 89 44 24 70       	mov    %rax,0x70(%rsp)
  4061fe:	48 89 4c 24 48       	mov    %rcx,0x48(%rsp)
  406203:	49 8d 04 0f          	lea    (%r15,%rcx,1),%rax
  406207:	48 89 44 24 68       	mov    %rax,0x68(%rsp)
  40620c:	b8 08 00 00 00       	mov    $0x8,%eax
  406211:	48 89 44 24 60       	mov    %rax,0x60(%rsp)
  406216:	48 8b 44 24 18       	mov    0x18(%rsp),%rax
  40621b:	48 89 44 24 58       	mov    %rax,0x58(%rsp)
  406220:	31 c0                	xor    %eax,%eax
  406222:	48 89 44 24 38       	mov    %rax,0x38(%rsp)
  406227:	45 31 c0             	xor    %r8d,%r8d
  40622a:	eb 2f                	jmp    40625b <bdiv+0xeb>
  40622c:	0f 1f 40 00          	nopl   0x0(%rax)
  406230:	48 83 44 24 38 01    	addq   $0x1,0x38(%rsp)
  406236:	48 8b 44 24 48       	mov    0x48(%rsp),%rax
  40623b:	49 01 c4             	add    %rax,%r12
  40623e:	49 01 c7             	add    %rax,%r15
  406241:	48 83 44 24 58 10    	addq   $0x10,0x58(%rsp)
  406247:	48 01 44 24 68       	add    %rax,0x68(%rsp)
  40624c:	48 83 44 24 60 10    	addq   $0x10,0x60(%rsp)
  406252:	4d 39 c8             	cmp    %r9,%r8
  406255:	0f 84 d1 03 00 00    	je     40662c <bdiv+0x4bc>
  40625b:	48 c7 c0 f8 ff ff ff 	mov    $0xfffffffffffffff8,%rax
  406262:	64 48 8b 08          	mov    %fs:(%rax),%rcx
  406266:	48 c7 c0 b0 ff ff ff 	mov    $0xffffffffffffffb0,%rax
  40626d:	64 48 8b 30          	mov    %fs:(%rax),%rsi
  406271:	0f 31                	rdtsc  
  406273:	48 c1 e2 20          	shl    $0x20,%rdx
  406277:	48 09 c2             	or     %rax,%rdx
  40627a:	48 29 ca             	sub    %rcx,%rdx
  40627d:	48 39 f2             	cmp    %rsi,%rdx
  406280:	4c 89 44 24 40       	mov    %r8,0x40(%rsp)
  406285:	72 12                	jb     406299 <bdiv+0x129>
  406287:	31 c0                	xor    %eax,%eax
  406289:	4c 89 cb             	mov    %r9,%rbx
  40628c:	e8 9f 0e 00 00       	callq  407130 <concord_rdtsc_func>
  406291:	4c 8b 44 24 40       	mov    0x40(%rsp),%r8
  406296:	49 89 d9             	mov    %rbx,%r9
  406299:	4c 89 c0             	mov    %r8,%rax
  40629c:	48 83 c8 01          	or     $0x1,%rax
  4062a0:	4c 39 c8             	cmp    %r9,%rax
  4062a3:	7d 7b                	jge    406320 <bdiv+0x1b0>
  4062a5:	4c 89 e1             	mov    %r12,%rcx
  4062a8:	48 89 c2             	mov    %rax,%rdx
  4062ab:	48 83 7c 24 30 01    	cmpq   $0x1,0x30(%rsp)
  4062b1:	0f 85 4b 01 00 00    	jne    406402 <bdiv+0x292>
  4062b7:	4d 89 c2             	mov    %r8,%r10
  4062ba:	4c 0f af 54 24 20    	imul   0x20(%rsp),%r10
  4062c0:	48 89 c1             	mov    %rax,%rcx
  4062c3:	41 f6 c1 01          	test   $0x1,%r9b
  4062c7:	75 41                	jne    40630a <bdiv+0x19a>
  4062c9:	4d 85 f6             	test   %r14,%r14
  4062cc:	74 38                	je     406306 <bdiv+0x196>
  4062ce:	48 89 c1             	mov    %rax,%rcx
  4062d1:	48 0f af 4c 24 20    	imul   0x20(%rsp),%rcx
  4062d7:	48 89 c2             	mov    %rax,%rdx
  4062da:	48 0f af 54 24 10    	imul   0x10(%rsp),%rdx
  4062e0:	4c 01 c2             	add    %r8,%rdx
  4062e3:	48 8b 74 24 18       	mov    0x18(%rsp),%rsi
  4062e8:	f2 0f 10 04 d6       	movsd  (%rsi,%rdx,8),%xmm0
  4062ed:	48 8b 54 24 08       	mov    0x8(%rsp),%rdx
  4062f2:	f2 0f 10 0c ca       	movsd  (%rdx,%rcx,8),%xmm1
  4062f7:	f2 42 0f 59 04 d2    	mulsd  (%rdx,%r10,8),%xmm0
  4062fd:	f2 0f 5c c8          	subsd  %xmm0,%xmm1
  406301:	f2 0f 11 0c ca       	movsd  %xmm1,(%rdx,%rcx,8)
  406306:	48 8d 48 01          	lea    0x1(%rax),%rcx
  40630a:	48 8b 54 24 38       	mov    0x38(%rsp),%rdx
  40630f:	48 01 d2             	add    %rdx,%rdx
  406312:	48 39 54 24 50       	cmp    %rdx,0x50(%rsp)
  406317:	0f 85 4f 02 00 00    	jne    40656c <bdiv+0x3fc>
  40631d:	0f 1f 00             	nopl   (%rax)
  406320:	49 83 c0 02          	add    $0x2,%r8
  406324:	4d 39 c8             	cmp    %r9,%r8
  406327:	0f 8d 03 ff ff ff    	jge    406230 <bdiv+0xc0>
  40632d:	48 8b 54 24 68       	mov    0x68(%rsp),%rdx
  406332:	4c 89 c6             	mov    %r8,%rsi
  406335:	48 83 7c 24 30 01    	cmpq   $0x1,0x30(%rsp)
  40633b:	0f 85 51 01 00 00    	jne    406492 <bdiv+0x322>
  406341:	48 89 c2             	mov    %rax,%rdx
  406344:	48 0f af 54 24 20    	imul   0x20(%rsp),%rdx
  40634a:	4c 89 c1             	mov    %r8,%rcx
  40634d:	f6 44 24 50 01       	testb  $0x1,0x50(%rsp)
  406352:	74 45                	je     406399 <bdiv+0x229>
  406354:	4d 85 f6             	test   %r14,%r14
  406357:	74 37                	je     406390 <bdiv+0x220>
  406359:	4c 89 c1             	mov    %r8,%rcx
  40635c:	48 0f af 4c 24 20    	imul   0x20(%rsp),%rcx
  406362:	4c 89 c6             	mov    %r8,%rsi
  406365:	48 0f af 74 24 10    	imul   0x10(%rsp),%rsi
  40636b:	48 01 c6             	add    %rax,%rsi
  40636e:	48 8b 44 24 18       	mov    0x18(%rsp),%rax
  406373:	f2 0f 10 04 f0       	movsd  (%rax,%rsi,8),%xmm0
  406378:	48 8b 44 24 08       	mov    0x8(%rsp),%rax
  40637d:	f2 0f 10 0c c8       	movsd  (%rax,%rcx,8),%xmm1
  406382:	f2 0f 59 04 d0       	mulsd  (%rax,%rdx,8),%xmm0
  406387:	f2 0f 5c c8          	subsd  %xmm0,%xmm1
  40638b:	f2 0f 11 0c c8       	movsd  %xmm1,(%rax,%rcx,8)
  406390:	48 8b 4c 24 40       	mov    0x40(%rsp),%rcx
  406395:	48 83 c1 03          	add    $0x3,%rcx
  406399:	48 8b 44 24 38       	mov    0x38(%rsp),%rax
  40639e:	48 01 c0             	add    %rax,%rax
  4063a1:	48 39 44 24 78       	cmp    %rax,0x78(%rsp)
  4063a6:	0f 84 84 fe ff ff    	je     406230 <bdiv+0xc0>
  4063ac:	4c 89 c8             	mov    %r9,%rax
  4063af:	48 29 c8             	sub    %rcx,%rax
  4063b2:	48 8d 71 01          	lea    0x1(%rcx),%rsi
  4063b6:	4c 8b 5c 24 10       	mov    0x10(%rsp),%r11
  4063bb:	4c 89 df             	mov    %r11,%rdi
  4063be:	48 0f af fe          	imul   %rsi,%rdi
  4063c2:	48 8b 5c 24 18       	mov    0x18(%rsp),%rbx
  4063c7:	4c 8d 14 fb          	lea    (%rbx,%rdi,8),%r10
  4063cb:	48 8b 6c 24 28       	mov    0x28(%rsp),%rbp
  4063d0:	48 0f af f5          	imul   %rbp,%rsi
  4063d4:	48 0f af e9          	imul   %rcx,%rbp
  4063d8:	49 0f af cb          	imul   %r11,%rcx
  4063dc:	4c 8d 1c cb          	lea    (%rbx,%rcx,8),%r11
  4063e0:	48 8b 7c 24 08       	mov    0x8(%rsp),%rdi
  4063e5:	48 8b 5c 24 60       	mov    0x60(%rsp),%rbx
  4063ea:	e9 35 01 00 00       	jmpq   406524 <bdiv+0x3b4>
  4063ef:	90                   	nop
  4063f0:	48 83 c2 01          	add    $0x1,%rdx
  4063f4:	48 03 4c 24 28       	add    0x28(%rsp),%rcx
  4063f9:	4c 39 ca             	cmp    %r9,%rdx
  4063fc:	0f 84 1e ff ff ff    	je     406320 <bdiv+0x1b0>
  406402:	48 89 d6             	mov    %rdx,%rsi
  406405:	48 0f af 74 24 10    	imul   0x10(%rsp),%rsi
  40640b:	4c 01 c6             	add    %r8,%rsi
  40640e:	48 8b 7c 24 18       	mov    0x18(%rsp),%rdi
  406413:	f2 0f 10 04 f7       	movsd  (%rdi,%rsi,8),%xmm0
  406418:	31 ff                	xor    %edi,%edi
  40641a:	66 0f 1f 44 00 00    	nopw   0x0(%rax,%rax,1)
  406420:	48 89 fe             	mov    %rdi,%rsi
  406423:	f2 41 0f 10 0c ff    	movsd  (%r15,%rdi,8),%xmm1
  406429:	f2 0f 59 c8          	mulsd  %xmm0,%xmm1
  40642d:	f2 0f 10 14 f9       	movsd  (%rcx,%rdi,8),%xmm2
  406432:	f2 0f 5c d1          	subsd  %xmm1,%xmm2
  406436:	f2 0f 10 4c f9 08    	movsd  0x8(%rcx,%rdi,8),%xmm1
  40643c:	f2 0f 11 14 f9       	movsd  %xmm2,(%rcx,%rdi,8)
  406441:	f2 41 0f 10 54 ff 08 	movsd  0x8(%r15,%rdi,8),%xmm2
  406448:	f2 0f 59 d0          	mulsd  %xmm0,%xmm2
  40644c:	f2 0f 5c ca          	subsd  %xmm2,%xmm1
  406450:	f2 0f 11 4c f9 08    	movsd  %xmm1,0x8(%rcx,%rdi,8)
  406456:	48 83 c7 02          	add    $0x2,%rdi
  40645a:	49 39 fd             	cmp    %rdi,%r13
  40645d:	75 c1                	jne    406420 <bdiv+0x2b0>
  40645f:	4d 85 f6             	test   %r14,%r14
  406462:	74 8c                	je     4063f0 <bdiv+0x280>
  406464:	f2 0f 10 4c f1 10    	movsd  0x10(%rcx,%rsi,8),%xmm1
  40646a:	f2 41 0f 59 44 f7 10 	mulsd  0x10(%r15,%rsi,8),%xmm0
  406471:	f2 0f 5c c8          	subsd  %xmm0,%xmm1
  406475:	f2 0f 11 4c f1 10    	movsd  %xmm1,0x10(%rcx,%rsi,8)
  40647b:	e9 70 ff ff ff       	jmpq   4063f0 <bdiv+0x280>
  406480:	48 83 c6 01          	add    $0x1,%rsi
  406484:	48 03 54 24 28       	add    0x28(%rsp),%rdx
  406489:	4c 39 ce             	cmp    %r9,%rsi
  40648c:	0f 84 9e fd ff ff    	je     406230 <bdiv+0xc0>
  406492:	48 89 f1             	mov    %rsi,%rcx
  406495:	48 0f af 4c 24 10    	imul   0x10(%rsp),%rcx
  40649b:	48 01 c1             	add    %rax,%rcx
  40649e:	48 8b 7c 24 18       	mov    0x18(%rsp),%rdi
  4064a3:	f2 0f 10 04 cf       	movsd  (%rdi,%rcx,8),%xmm0
  4064a8:	31 ff                	xor    %edi,%edi
  4064aa:	66 0f 1f 44 00 00    	nopw   0x0(%rax,%rax,1)
  4064b0:	48 89 f9             	mov    %rdi,%rcx
  4064b3:	f2 41 0f 10 0c fc    	movsd  (%r12,%rdi,8),%xmm1
  4064b9:	f2 0f 59 c8          	mulsd  %xmm0,%xmm1
  4064bd:	f2 0f 10 14 fa       	movsd  (%rdx,%rdi,8),%xmm2
  4064c2:	f2 0f 5c d1          	subsd  %xmm1,%xmm2
  4064c6:	f2 0f 10 4c fa 08    	movsd  0x8(%rdx,%rdi,8),%xmm1
  4064cc:	f2 0f 11 14 fa       	movsd  %xmm2,(%rdx,%rdi,8)
  4064d1:	f2 41 0f 10 54 fc 08 	movsd  0x8(%r12,%rdi,8),%xmm2
  4064d8:	f2 0f 59 d0          	mulsd  %xmm0,%xmm2
  4064dc:	f2 0f 5c ca          	subsd  %xmm2,%xmm1
  4064e0:	f2 0f 11 4c fa 08    	movsd  %xmm1,0x8(%rdx,%rdi,8)
  4064e6:	48 83 c7 02          	add    $0x2,%rdi
  4064ea:	49 39 fd             	cmp    %rdi,%r13
  4064ed:	75 c1                	jne    4064b0 <bdiv+0x340>
  4064ef:	4d 85 f6             	test   %r14,%r14
  4064f2:	74 8c                	je     406480 <bdiv+0x310>
  4064f4:	f2 0f 10 4c ca 10    	movsd  0x10(%rdx,%rcx,8),%xmm1
  4064fa:	f2 41 0f 59 44 cc 10 	mulsd  0x10(%r12,%rcx,8),%xmm0
  406501:	f2 0f 5c c8          	subsd  %xmm0,%xmm1
  406505:	f2 0f 11 4c ca 10    	movsd  %xmm1,0x10(%rdx,%rcx,8)
  40650b:	e9 70 ff ff ff       	jmpq   406480 <bdiv+0x310>
  406510:	48 03 5c 24 70       	add    0x70(%rsp),%rbx
  406515:	48 03 7c 24 48       	add    0x48(%rsp),%rdi
  40651a:	48 83 c0 fe          	add    $0xfffffffffffffffe,%rax
  40651e:	0f 84 0c fd ff ff    	je     406230 <bdiv+0xc0>
  406524:	4d 85 f6             	test   %r14,%r14
  406527:	74 1e                	je     406547 <bdiv+0x3d7>
  406529:	f2 41 0f 10 04 1b    	movsd  (%r11,%rbx,1),%xmm0
  40652f:	f2 0f 10 0c 2f       	movsd  (%rdi,%rbp,1),%xmm1
  406534:	48 8b 4c 24 08       	mov    0x8(%rsp),%rcx
  406539:	f2 0f 59 04 d1       	mulsd  (%rcx,%rdx,8),%xmm0
  40653e:	f2 0f 5c c8          	subsd  %xmm0,%xmm1
  406542:	f2 0f 11 0c 2f       	movsd  %xmm1,(%rdi,%rbp,1)
  406547:	4d 85 f6             	test   %r14,%r14
  40654a:	74 c4                	je     406510 <bdiv+0x3a0>
  40654c:	f2 41 0f 10 04 1a    	movsd  (%r10,%rbx,1),%xmm0
  406552:	f2 0f 10 0c 37       	movsd  (%rdi,%rsi,1),%xmm1
  406557:	48 8b 4c 24 08       	mov    0x8(%rsp),%rcx
  40655c:	f2 0f 59 04 d1       	mulsd  (%rcx,%rdx,8),%xmm0
  406561:	f2 0f 5c c8          	subsd  %xmm0,%xmm1
  406565:	f2 0f 11 0c 37       	movsd  %xmm1,(%rdi,%rsi,1)
  40656a:	eb a4                	jmp    406510 <bdiv+0x3a0>
  40656c:	4c 89 ca             	mov    %r9,%rdx
  40656f:	48 29 ca             	sub    %rcx,%rdx
  406572:	48 8d 71 01          	lea    0x1(%rcx),%rsi
  406576:	48 8b 5c 24 10       	mov    0x10(%rsp),%rbx
  40657b:	48 89 df             	mov    %rbx,%rdi
  40657e:	48 0f af fe          	imul   %rsi,%rdi
  406582:	48 8b 6c 24 58       	mov    0x58(%rsp),%rbp
  406587:	48 8d 3c fd 00 00 00 	lea    0x0(,%rdi,8),%rdi
  40658e:	00 
  40658f:	48 01 ef             	add    %rbp,%rdi
  406592:	48 89 bc 24 80 00 00 	mov    %rdi,0x80(%rsp)
  406599:	00 
  40659a:	48 8b 7c 24 28       	mov    0x28(%rsp),%rdi
  40659f:	48 0f af f7          	imul   %rdi,%rsi
  4065a3:	48 0f af f9          	imul   %rcx,%rdi
  4065a7:	48 0f af cb          	imul   %rbx,%rcx
  4065ab:	4c 8d 1c cd 00 00 00 	lea    0x0(,%rcx,8),%r11
  4065b2:	00 
  4065b3:	49 01 eb             	add    %rbp,%r11
  4065b6:	48 8b 4c 24 08       	mov    0x8(%rsp),%rcx
  4065bb:	31 db                	xor    %ebx,%ebx
  4065bd:	eb 15                	jmp    4065d4 <bdiv+0x464>
  4065bf:	90                   	nop
  4065c0:	48 03 5c 24 70       	add    0x70(%rsp),%rbx
  4065c5:	48 03 4c 24 48       	add    0x48(%rsp),%rcx
  4065ca:	48 83 c2 fe          	add    $0xfffffffffffffffe,%rdx
  4065ce:	0f 84 4c fd ff ff    	je     406320 <bdiv+0x1b0>
  4065d4:	4d 85 f6             	test   %r14,%r14
  4065d7:	74 24                	je     4065fd <bdiv+0x48d>
  4065d9:	f2 41 0f 10 04 1b    	movsd  (%r11,%rbx,1),%xmm0
  4065df:	f2 0f 10 0c 39       	movsd  (%rcx,%rdi,1),%xmm1
  4065e4:	4c 8b 44 24 08       	mov    0x8(%rsp),%r8
  4065e9:	f2 43 0f 59 04 d0    	mulsd  (%r8,%r10,8),%xmm0
  4065ef:	4c 8b 44 24 40       	mov    0x40(%rsp),%r8
  4065f4:	f2 0f 5c c8          	subsd  %xmm0,%xmm1
  4065f8:	f2 0f 11 0c 39       	movsd  %xmm1,(%rcx,%rdi,1)
  4065fd:	4d 85 f6             	test   %r14,%r14
  406600:	74 be                	je     4065c0 <bdiv+0x450>
  406602:	48 8b ac 24 80 00 00 	mov    0x80(%rsp),%rbp
  406609:	00 
  40660a:	f2 0f 10 44 1d 00    	movsd  0x0(%rbp,%rbx,1),%xmm0
  406610:	f2 0f 10 0c 31       	movsd  (%rcx,%rsi,1),%xmm1
  406615:	48 8b 6c 24 08       	mov    0x8(%rsp),%rbp
  40661a:	f2 42 0f 59 44 d5 00 	mulsd  0x0(%rbp,%r10,8),%xmm0
  406621:	f2 0f 5c c8          	subsd  %xmm0,%xmm1
  406625:	f2 0f 11 0c 31       	movsd  %xmm1,(%rcx,%rsi,1)
  40662a:	eb 94                	jmp    4065c0 <bdiv+0x450>
  40662c:	48 81 c4 88 00 00 00 	add    $0x88,%rsp
  406633:	5b                   	pop    %rbx
  406634:	41 5c                	pop    %r12
  406636:	41 5d                	pop    %r13
  406638:	41 5e                	pop    %r14
  40663a:	41 5f                	pop    %r15
  40663c:	5d                   	pop    %rbp
  40663d:	c3                   	retq   
  40663e:	66 90                	xchg   %ax,%ax

0000000000406640 <bmodd>:
  406640:	55                   	push   %rbp
  406641:	41 57                	push   %r15
  406643:	41 56                	push   %r14
  406645:	41 55                	push   %r13
  406647:	41 54                	push   %r12
  406649:	53                   	push   %rbx
  40664a:	48 81 ec b8 00 00 00 	sub    $0xb8,%rsp
  406651:	48 89 4c 24 10       	mov    %rcx,0x10(%rsp)
  406656:	48 89 74 24 28       	mov    %rsi,0x28(%rsp)
  40665b:	48 89 54 24 30       	mov    %rdx,0x30(%rsp)
  406660:	48 85 d2             	test   %rdx,%rdx
  406663:	0f 8e 13 06 00 00    	jle    406c7c <bmodd+0x63c>
  406669:	48 83 7c 24 10 00    	cmpq   $0x0,0x10(%rsp)
  40666f:	0f 8e 07 06 00 00    	jle    406c7c <bmodd+0x63c>
  406675:	4d 89 ce             	mov    %r9,%r14
  406678:	48 8b 54 24 30       	mov    0x30(%rsp),%rdx
  40667d:	4c 8d 62 fe          	lea    -0x2(%rdx),%r12
  406681:	48 8b 4c 24 10       	mov    0x10(%rsp),%rcx
  406686:	89 c8                	mov    %ecx,%eax
  406688:	83 e0 01             	and    $0x1,%eax
  40668b:	48 89 44 24 60       	mov    %rax,0x60(%rsp)
  406690:	89 d6                	mov    %edx,%esi
  406692:	83 e6 01             	and    $0x1,%esi
  406695:	48 89 f0             	mov    %rsi,%rax
  406698:	48 83 f0 01          	xor    $0x1,%rax
  40669c:	4c 89 cd             	mov    %r9,%rbp
  40669f:	48 c1 e5 04          	shl    $0x4,%rbp
  4066a3:	48 89 6c 24 58       	mov    %rbp,0x58(%rsp)
  4066a8:	4a 8d 2c cd 00 00 00 	lea    0x0(,%r9,8),%rbp
  4066af:	00 
  4066b0:	48 89 6c 24 18       	mov    %rbp,0x18(%rsp)
  4066b5:	48 83 e1 fe          	and    $0xfffffffffffffffe,%rcx
  4066b9:	48 89 4c 24 50       	mov    %rcx,0x50(%rsp)
  4066be:	4c 89 c1             	mov    %r8,%rcx
  4066c1:	48 c1 e1 04          	shl    $0x4,%rcx
  4066c5:	48 83 c1 10          	add    $0x10,%rcx
  4066c9:	48 89 8c 24 90 00 00 	mov    %rcx,0x90(%rsp)
  4066d0:	00 
  4066d1:	49 89 d7             	mov    %rdx,%r15
  4066d4:	49 29 c7             	sub    %rax,%r15
  4066d7:	48 8b 44 24 28       	mov    0x28(%rsp),%rax
  4066dc:	48 8d 0c d0          	lea    (%rax,%rdx,8),%rcx
  4066e0:	48 83 c1 f0          	add    $0xfffffffffffffff0,%rcx
  4066e4:	48 89 8c 24 88 00 00 	mov    %rcx,0x88(%rsp)
  4066eb:	00 
  4066ec:	48 8d 48 08          	lea    0x8(%rax),%rcx
  4066f0:	48 89 4c 24 68       	mov    %rcx,0x68(%rsp)
  4066f5:	48 8d 48 28          	lea    0x28(%rax),%rcx
  4066f9:	48 89 4c 24 78       	mov    %rcx,0x78(%rsp)
  4066fe:	4a 8d 1c c7          	lea    (%rdi,%r8,8),%rbx
  406702:	48 83 c3 28          	add    $0x28,%rbx
  406706:	4c 89 64 24 70       	mov    %r12,0x70(%rsp)
  40670b:	48 89 74 24 38       	mov    %rsi,0x38(%rsp)
  406710:	49 29 f4             	sub    %rsi,%r12
  406713:	49 c7 c2 f8 ff ff ff 	mov    $0xfffffffffffffff8,%r10
  40671a:	49 c7 c3 b0 ff ff ff 	mov    $0xffffffffffffffb0,%r11
  406721:	48 89 fd             	mov    %rdi,%rbp
  406724:	48 89 44 24 20       	mov    %rax,0x20(%rsp)
  406729:	31 c0                	xor    %eax,%eax
  40672b:	4c 89 84 24 80 00 00 	mov    %r8,0x80(%rsp)
  406732:	00 
  406733:	4c 89 8c 24 a0 00 00 	mov    %r9,0xa0(%rsp)
  40673a:	00 
  40673b:	48 89 7c 24 08       	mov    %rdi,0x8(%rsp)
  406740:	eb 51                	jmp    406793 <bmodd+0x153>
  406742:	66 2e 0f 1f 84 00 00 	nopw   %cs:0x0(%rax,%rax,1)
  406749:	00 00 00 
  40674c:	0f 1f 40 00          	nopl   0x0(%rax)
  406750:	48 83 44 24 20 10    	addq   $0x10,0x20(%rsp)
  406756:	48 8b 84 24 90 00 00 	mov    0x90(%rsp),%rax
  40675d:	00 
  40675e:	48 01 c5             	add    %rax,%rbp
  406761:	49 83 c7 fe          	add    $0xfffffffffffffffe,%r15
  406765:	48 83 44 24 68 10    	addq   $0x10,0x68(%rsp)
  40676b:	48 83 44 24 78 10    	addq   $0x10,0x78(%rsp)
  406771:	48 01 c3             	add    %rax,%rbx
  406774:	49 83 c4 fe          	add    $0xfffffffffffffffe,%r12
  406778:	48 8b 84 24 98 00 00 	mov    0x98(%rsp),%rax
  40677f:	00 
  406780:	48 3b 44 24 30       	cmp    0x30(%rsp),%rax
  406785:	4c 8b 84 24 80 00 00 	mov    0x80(%rsp),%r8
  40678c:	00 
  40678d:	0f 84 e9 04 00 00    	je     406c7c <bmodd+0x63c>
  406793:	49 89 c1             	mov    %rax,%r9
  406796:	64 49 8b 0a          	mov    %fs:(%r10),%rcx
  40679a:	64 49 8b 33          	mov    %fs:(%r11),%rsi
  40679e:	0f 31                	rdtsc  
  4067a0:	48 c1 e2 20          	shl    $0x20,%rdx
  4067a4:	48 09 c2             	or     %rax,%rdx
  4067a7:	48 29 ca             	sub    %rcx,%rdx
  4067aa:	48 39 f2             	cmp    %rsi,%rdx
  4067ad:	72 23                	jb     4067d2 <bmodd+0x192>
  4067af:	31 c0                	xor    %eax,%eax
  4067b1:	4d 89 cd             	mov    %r9,%r13
  4067b4:	e8 77 09 00 00       	callq  407130 <concord_rdtsc_func>
  4067b9:	4d 89 e9             	mov    %r13,%r9
  4067bc:	4c 8b 84 24 80 00 00 	mov    0x80(%rsp),%r8
  4067c3:	00 
  4067c4:	49 c7 c3 b0 ff ff ff 	mov    $0xffffffffffffffb0,%r11
  4067cb:	49 c7 c2 f8 ff ff ff 	mov    $0xfffffffffffffff8,%r10
  4067d2:	4c 89 ca             	mov    %r9,%rdx
  4067d5:	48 f7 d2             	not    %rdx
  4067d8:	48 03 54 24 30       	add    0x30(%rsp),%rdx
  4067dd:	4c 89 c9             	mov    %r9,%rcx
  4067e0:	49 0f af c8          	imul   %r8,%rcx
  4067e4:	4e 8d 2c 09          	lea    (%rcx,%r9,1),%r13
  4067e8:	4c 89 c8             	mov    %r9,%rax
  4067eb:	48 83 c8 01          	or     $0x1,%rax
  4067ef:	48 85 d2             	test   %rdx,%rdx
  4067f2:	48 89 44 24 40       	mov    %rax,0x40(%rsp)
  4067f7:	7e 77                	jle    406870 <bmodd+0x230>
  4067f9:	4c 39 4c 24 70       	cmp    %r9,0x70(%rsp)
  4067fe:	0f 85 8c 00 00 00    	jne    406890 <bmodd+0x250>
  406804:	48 01 c1             	add    %rax,%rcx
  406807:	31 d2                	xor    %edx,%edx
  406809:	48 8b 74 24 10       	mov    0x10(%rsp),%rsi
  40680e:	eb 0f                	jmp    40681f <bmodd+0x1df>
  406810:	48 03 54 24 18       	add    0x18(%rsp),%rdx
  406815:	48 83 c6 ff          	add    $0xffffffffffffffff,%rsi
  406819:	0f 84 a1 01 00 00    	je     4069c0 <bmodd+0x380>
  40681f:	48 8b bc 24 88 00 00 	mov    0x88(%rsp),%rdi
  406826:	00 
  406827:	f2 0f 10 04 17       	movsd  (%rdi,%rdx,1),%xmm0
  40682c:	48 8b 44 24 08       	mov    0x8(%rsp),%rax
  406831:	f2 42 0f 5e 04 e8    	divsd  (%rax,%r13,8),%xmm0
  406837:	f2 0f 11 04 17       	movsd  %xmm0,(%rdi,%rdx,1)
  40683c:	48 83 7c 24 38 00    	cmpq   $0x0,0x38(%rsp)
  406842:	75 cc                	jne    406810 <bmodd+0x1d0>
  406844:	48 8b 7c 24 20       	mov    0x20(%rsp),%rdi
  406849:	f2 0f 10 4c 17 08    	movsd  0x8(%rdi,%rdx,1),%xmm1
  40684f:	48 8b 44 24 08       	mov    0x8(%rsp),%rax
  406854:	f2 0f 59 04 c8       	mulsd  (%rax,%rcx,8),%xmm0
  406859:	f2 0f 5c c8          	subsd  %xmm0,%xmm1
  40685d:	f2 0f 11 4c 17 08    	movsd  %xmm1,0x8(%rdi,%rdx,1)
  406863:	eb ab                	jmp    406810 <bmodd+0x1d0>
  406865:	66 2e 0f 1f 84 00 00 	nopw   %cs:0x0(%rax,%rax,1)
  40686c:	00 00 00 
  40686f:	90                   	nop
  406870:	48 83 7c 24 10 01    	cmpq   $0x1,0x10(%rsp)
  406876:	4c 89 4c 24 48       	mov    %r9,0x48(%rsp)
  40687b:	0f 85 c4 00 00 00    	jne    406945 <bmodd+0x305>
  406881:	31 c9                	xor    %ecx,%ecx
  406883:	e9 02 01 00 00       	jmpq   40698a <bmodd+0x34a>
  406888:	0f 1f 84 00 00 00 00 	nopl   0x0(%rax,%rax,1)
  40688f:	00 
  406890:	48 8b 4c 24 20       	mov    0x20(%rsp),%rcx
  406895:	31 d2                	xor    %edx,%edx
  406897:	eb 1b                	jmp    4068b4 <bmodd+0x274>
  406899:	0f 1f 80 00 00 00 00 	nopl   0x0(%rax)
  4068a0:	48 83 c2 01          	add    $0x1,%rdx
  4068a4:	48 03 4c 24 18       	add    0x18(%rsp),%rcx
  4068a9:	48 3b 54 24 10       	cmp    0x10(%rsp),%rdx
  4068ae:	0f 84 0c 01 00 00    	je     4069c0 <bmodd+0x380>
  4068b4:	48 89 d6             	mov    %rdx,%rsi
  4068b7:	49 0f af f6          	imul   %r14,%rsi
  4068bb:	4c 01 ce             	add    %r9,%rsi
  4068be:	48 8b 7c 24 28       	mov    0x28(%rsp),%rdi
  4068c3:	f2 0f 10 04 f7       	movsd  (%rdi,%rsi,8),%xmm0
  4068c8:	48 8b 44 24 08       	mov    0x8(%rsp),%rax
  4068cd:	f2 42 0f 5e 04 e8    	divsd  (%rax,%r13,8),%xmm0
  4068d3:	f2 0f 11 04 f7       	movsd  %xmm0,(%rdi,%rsi,8)
  4068d8:	bf 01 00 00 00       	mov    $0x1,%edi
  4068dd:	0f 1f 00             	nopl   (%rax)
  4068e0:	48 89 fe             	mov    %rdi,%rsi
  4068e3:	f2 0f 10 4c fd 00    	movsd  0x0(%rbp,%rdi,8),%xmm1
  4068e9:	f2 0f 59 c8          	mulsd  %xmm0,%xmm1
  4068ed:	f2 0f 10 14 f9       	movsd  (%rcx,%rdi,8),%xmm2
  4068f2:	f2 0f 5c d1          	subsd  %xmm1,%xmm2
  4068f6:	f2 0f 10 4c f9 08    	movsd  0x8(%rcx,%rdi,8),%xmm1
  4068fc:	f2 0f 11 14 f9       	movsd  %xmm2,(%rcx,%rdi,8)
  406901:	f2 0f 10 54 fd 08    	movsd  0x8(%rbp,%rdi,8),%xmm2
  406907:	f2 0f 59 d0          	mulsd  %xmm0,%xmm2
  40690b:	f2 0f 5c ca          	subsd  %xmm2,%xmm1
  40690f:	f2 0f 11 4c f9 08    	movsd  %xmm1,0x8(%rcx,%rdi,8)
  406915:	48 83 c7 02          	add    $0x2,%rdi
  406919:	49 39 ff             	cmp    %rdi,%r15
  40691c:	75 c2                	jne    4068e0 <bmodd+0x2a0>
  40691e:	48 83 7c 24 38 00    	cmpq   $0x0,0x38(%rsp)
  406924:	0f 85 76 ff ff ff    	jne    4068a0 <bmodd+0x260>
  40692a:	f2 0f 10 4c f1 10    	movsd  0x10(%rcx,%rsi,8),%xmm1
  406930:	f2 0f 59 44 f5 10    	mulsd  0x10(%rbp,%rsi,8),%xmm0
  406936:	f2 0f 5c c8          	subsd  %xmm0,%xmm1
  40693a:	f2 0f 11 4c f1 10    	movsd  %xmm1,0x10(%rcx,%rsi,8)
  406940:	e9 5b ff ff ff       	jmpq   4068a0 <bmodd+0x260>
  406945:	48 8b 54 24 20       	mov    0x20(%rsp),%rdx
  40694a:	31 c9                	xor    %ecx,%ecx
  40694c:	48 8b 74 24 08       	mov    0x8(%rsp),%rsi
  406951:	4c 8b 4c 24 58       	mov    0x58(%rsp),%r9
  406956:	48 8b 7c 24 18       	mov    0x18(%rsp),%rdi
  40695b:	48 8b 44 24 50       	mov    0x50(%rsp),%rax
  406960:	f2 0f 10 02          	movsd  (%rdx),%xmm0
  406964:	f2 42 0f 5e 04 ee    	divsd  (%rsi,%r13,8),%xmm0
  40696a:	f2 0f 11 02          	movsd  %xmm0,(%rdx)
  40696e:	f2 0f 10 04 3a       	movsd  (%rdx,%rdi,1),%xmm0
  406973:	f2 42 0f 5e 04 ee    	divsd  (%rsi,%r13,8),%xmm0
  406979:	f2 0f 11 04 3a       	movsd  %xmm0,(%rdx,%rdi,1)
  40697e:	48 83 c1 02          	add    $0x2,%rcx
  406982:	4c 01 ca             	add    %r9,%rdx
  406985:	48 39 c8             	cmp    %rcx,%rax
  406988:	75 d6                	jne    406960 <bmodd+0x320>
  40698a:	48 83 7c 24 60 00    	cmpq   $0x0,0x60(%rsp)
  406990:	4c 8b 4c 24 48       	mov    0x48(%rsp),%r9
  406995:	74 29                	je     4069c0 <bmodd+0x380>
  406997:	49 0f af ce          	imul   %r14,%rcx
  40699b:	4c 01 c9             	add    %r9,%rcx
  40699e:	48 8b 54 24 28       	mov    0x28(%rsp),%rdx
  4069a3:	f2 0f 10 04 ca       	movsd  (%rdx,%rcx,8),%xmm0
  4069a8:	48 8b 74 24 08       	mov    0x8(%rsp),%rsi
  4069ad:	f2 42 0f 5e 04 ee    	divsd  (%rsi,%r13,8),%xmm0
  4069b3:	f2 0f 11 04 ca       	movsd  %xmm0,(%rdx,%rcx,8)
  4069b8:	0f 1f 84 00 00 00 00 	nopl   0x0(%rax,%rax,1)
  4069bf:	00 
  4069c0:	48 8b 4c 24 30       	mov    0x30(%rsp),%rcx
  4069c5:	4c 29 c9             	sub    %r9,%rcx
  4069c8:	48 83 c1 fe          	add    $0xfffffffffffffffe,%rcx
  4069cc:	48 8b 54 24 40       	mov    0x40(%rsp),%rdx
  4069d1:	48 89 d0             	mov    %rdx,%rax
  4069d4:	49 0f af c0          	imul   %r8,%rax
  4069d8:	4c 8d 2c 10          	lea    (%rax,%rdx,1),%r13
  4069dc:	49 8d 71 02          	lea    0x2(%r9),%rsi
  4069e0:	48 85 c9             	test   %rcx,%rcx
  4069e3:	48 89 b4 24 98 00 00 	mov    %rsi,0x98(%rsp)
  4069ea:	00 
  4069eb:	0f 8e 7f 00 00 00    	jle    406a70 <bmodd+0x430>
  4069f1:	48 39 54 24 70       	cmp    %rdx,0x70(%rsp)
  4069f6:	0f 85 94 00 00 00    	jne    406a90 <bmodd+0x450>
  4069fc:	4e 8d 04 08          	lea    (%rax,%r9,1),%r8
  406a00:	49 83 c0 02          	add    $0x2,%r8
  406a04:	31 c9                	xor    %ecx,%ecx
  406a06:	48 8b 54 24 10       	mov    0x10(%rsp),%rdx
  406a0b:	48 8b 7c 24 08       	mov    0x8(%rsp),%rdi
  406a10:	48 8b 74 24 18       	mov    0x18(%rsp),%rsi
  406a15:	eb 16                	jmp    406a2d <bmodd+0x3ed>
  406a17:	66 0f 1f 84 00 00 00 	nopw   0x0(%rax,%rax,1)
  406a1e:	00 00 
  406a20:	48 01 f1             	add    %rsi,%rcx
  406a23:	48 83 c2 ff          	add    $0xffffffffffffffff,%rdx
  406a27:	0f 84 23 fd ff ff    	je     406750 <bmodd+0x110>
  406a2d:	48 8b 84 24 88 00 00 	mov    0x88(%rsp),%rax
  406a34:	00 
  406a35:	f2 0f 10 04 08       	movsd  (%rax,%rcx,1),%xmm0
  406a3a:	f2 42 0f 5e 04 ef    	divsd  (%rdi,%r13,8),%xmm0
  406a40:	f2 0f 11 04 08       	movsd  %xmm0,(%rax,%rcx,1)
  406a45:	48 83 7c 24 38 00    	cmpq   $0x0,0x38(%rsp)
  406a4b:	74 d3                	je     406a20 <bmodd+0x3e0>
  406a4d:	48 8b 44 24 20       	mov    0x20(%rsp),%rax
  406a52:	f2 0f 10 4c 08 10    	movsd  0x10(%rax,%rcx,1),%xmm1
  406a58:	f2 42 0f 59 04 c7    	mulsd  (%rdi,%r8,8),%xmm0
  406a5e:	f2 0f 5c c8          	subsd  %xmm0,%xmm1
  406a62:	f2 0f 11 4c 08 10    	movsd  %xmm1,0x10(%rax,%rcx,1)
  406a68:	eb b6                	jmp    406a20 <bmodd+0x3e0>
  406a6a:	66 0f 1f 44 00 00    	nopw   0x0(%rax,%rax,1)
  406a70:	48 83 7c 24 10 01    	cmpq   $0x1,0x10(%rsp)
  406a76:	0f 85 87 01 00 00    	jne    406c03 <bmodd+0x5c3>
  406a7c:	31 c0                	xor    %eax,%eax
  406a7e:	48 8b 7c 24 08       	mov    0x8(%rsp),%rdi
  406a83:	e9 c2 01 00 00       	jmpq   406c4a <bmodd+0x60a>
  406a88:	0f 1f 84 00 00 00 00 	nopl   0x0(%rax,%rax,1)
  406a8f:	00 
  406a90:	4c 89 ac 24 a8 00 00 	mov    %r13,0xa8(%rsp)
  406a97:	00 
  406a98:	4c 8b 6c 24 78       	mov    0x78(%rsp),%r13
  406a9d:	31 c0                	xor    %eax,%eax
  406a9f:	48 8b 7c 24 08       	mov    0x8(%rsp),%rdi
  406aa4:	eb 38                	jmp    406ade <bmodd+0x49e>
  406aa6:	66 2e 0f 1f 84 00 00 	nopw   %cs:0x0(%rax,%rax,1)
  406aad:	00 00 00 
  406ab0:	48 8b 84 24 b0 00 00 	mov    0xb0(%rsp),%rax
  406ab7:	00 
  406ab8:	48 83 c0 01          	add    $0x1,%rax
  406abc:	4c 03 6c 24 18       	add    0x18(%rsp),%r13
  406ac1:	48 3b 44 24 10       	cmp    0x10(%rsp),%rax
  406ac6:	4c 8b b4 24 a0 00 00 	mov    0xa0(%rsp),%r14
  406acd:	00 
  406ace:	48 8b 7c 24 08       	mov    0x8(%rsp),%rdi
  406ad3:	48 8b 54 24 40       	mov    0x40(%rsp),%rdx
  406ad8:	0f 84 72 fc ff ff    	je     406750 <bmodd+0x110>
  406ade:	48 89 84 24 b0 00 00 	mov    %rax,0xb0(%rsp)
  406ae5:	00 
  406ae6:	49 0f af c6          	imul   %r14,%rax
  406aea:	48 01 d0             	add    %rdx,%rax
  406aed:	48 8b 4c 24 28       	mov    0x28(%rsp),%rcx
  406af2:	f2 0f 10 1c c1       	movsd  (%rcx,%rax,8),%xmm3
  406af7:	48 8b 94 24 a8 00 00 	mov    0xa8(%rsp),%rdx
  406afe:	00 
  406aff:	f2 0f 5e 1c d7       	divsd  (%rdi,%rdx,8),%xmm3
  406b04:	f2 0f 11 1c c1       	movsd  %xmm3,(%rcx,%rax,8)
  406b09:	31 c0                	xor    %eax,%eax
  406b0b:	f2 0f 11 5c 24 48    	movsd  %xmm3,0x48(%rsp)
  406b11:	e9 86 00 00 00       	jmpq   406b9c <bmodd+0x55c>
  406b16:	66 2e 0f 1f 84 00 00 	nopw   %cs:0x0(%rax,%rax,1)
  406b1d:	00 00 00 
  406b20:	f2 42 0f 10 44 f3 e8 	movsd  -0x18(%rbx,%r14,8),%xmm0
  406b27:	f2 0f 59 c3          	mulsd  %xmm3,%xmm0
  406b2b:	f2 43 0f 10 4c f5 e8 	movsd  -0x18(%r13,%r14,8),%xmm1
  406b32:	f2 0f 5c c8          	subsd  %xmm0,%xmm1
  406b36:	f2 43 0f 10 44 f5 f0 	movsd  -0x10(%r13,%r14,8),%xmm0
  406b3d:	f2 43 0f 11 4c f5 e8 	movsd  %xmm1,-0x18(%r13,%r14,8)
  406b44:	f2 42 0f 10 4c f3 f0 	movsd  -0x10(%rbx,%r14,8),%xmm1
  406b4b:	f2 0f 59 cb          	mulsd  %xmm3,%xmm1
  406b4f:	f2 0f 5c c1          	subsd  %xmm1,%xmm0
  406b53:	f2 43 0f 11 44 f5 f0 	movsd  %xmm0,-0x10(%r13,%r14,8)
  406b5a:	f2 43 0f 10 44 f5 f8 	movsd  -0x8(%r13,%r14,8),%xmm0
  406b61:	f2 42 0f 10 4c f3 f8 	movsd  -0x8(%rbx,%r14,8),%xmm1
  406b68:	f2 0f 59 cb          	mulsd  %xmm3,%xmm1
  406b6c:	f2 0f 5c c1          	subsd  %xmm1,%xmm0
  406b70:	f2 43 0f 11 44 f5 f8 	movsd  %xmm0,-0x8(%r13,%r14,8)
  406b77:	f2 43 0f 10 4c f5 00 	movsd  0x0(%r13,%r14,8),%xmm1
  406b7e:	f2 42 0f 10 14 f3    	movsd  (%rbx,%r14,8),%xmm2
  406b84:	f2 0f 59 d3          	mulsd  %xmm3,%xmm2
  406b88:	f2 0f 5c ca          	subsd  %xmm2,%xmm1
  406b8c:	f2 43 0f 11 4c f5 00 	movsd  %xmm1,0x0(%r13,%r14,8)
  406b93:	49 8d 46 04          	lea    0x4(%r14),%rax
  406b97:	49 39 c4             	cmp    %rax,%r12
  406b9a:	74 44                	je     406be0 <bmodd+0x5a0>
  406b9c:	49 89 c6             	mov    %rax,%r14
  406b9f:	64 49 8b 0a          	mov    %fs:(%r10),%rcx
  406ba3:	64 49 8b 33          	mov    %fs:(%r11),%rsi
  406ba7:	0f 31                	rdtsc  
  406ba9:	48 c1 e2 20          	shl    $0x20,%rdx
  406bad:	48 09 c2             	or     %rax,%rdx
  406bb0:	48 29 ca             	sub    %rcx,%rdx
  406bb3:	48 39 f2             	cmp    %rsi,%rdx
  406bb6:	0f 82 64 ff ff ff    	jb     406b20 <bmodd+0x4e0>
  406bbc:	31 c0                	xor    %eax,%eax
  406bbe:	e8 6d 05 00 00       	callq  407130 <concord_rdtsc_func>
  406bc3:	f2 0f 10 5c 24 48    	movsd  0x48(%rsp),%xmm3
  406bc9:	49 c7 c3 b0 ff ff ff 	mov    $0xffffffffffffffb0,%r11
  406bd0:	49 c7 c2 f8 ff ff ff 	mov    $0xfffffffffffffff8,%r10
  406bd7:	e9 44 ff ff ff       	jmpq   406b20 <bmodd+0x4e0>
  406bdc:	0f 1f 40 00          	nopl   0x0(%rax)
  406be0:	48 83 7c 24 38 00    	cmpq   $0x0,0x38(%rsp)
  406be6:	0f 84 c4 fe ff ff    	je     406ab0 <bmodd+0x470>
  406bec:	f2 42 0f 59 5c f3 f8 	mulsd  -0x8(%rbx,%r14,8),%xmm3
  406bf3:	f2 0f 5c c3          	subsd  %xmm3,%xmm0
  406bf7:	f2 43 0f 11 44 f5 f8 	movsd  %xmm0,-0x8(%r13,%r14,8)
  406bfe:	e9 ad fe ff ff       	jmpq   406ab0 <bmodd+0x470>
  406c03:	48 8b 4c 24 68       	mov    0x68(%rsp),%rcx
  406c08:	31 c0                	xor    %eax,%eax
  406c0a:	48 8b 7c 24 08       	mov    0x8(%rsp),%rdi
  406c0f:	4c 8b 44 24 58       	mov    0x58(%rsp),%r8
  406c14:	48 8b 74 24 18       	mov    0x18(%rsp),%rsi
  406c19:	48 8b 54 24 50       	mov    0x50(%rsp),%rdx
  406c1e:	66 90                	xchg   %ax,%ax
  406c20:	f2 0f 10 01          	movsd  (%rcx),%xmm0
  406c24:	f2 42 0f 5e 04 ef    	divsd  (%rdi,%r13,8),%xmm0
  406c2a:	f2 0f 11 01          	movsd  %xmm0,(%rcx)
  406c2e:	f2 0f 10 04 31       	movsd  (%rcx,%rsi,1),%xmm0
  406c33:	f2 42 0f 5e 04 ef    	divsd  (%rdi,%r13,8),%xmm0
  406c39:	f2 0f 11 04 31       	movsd  %xmm0,(%rcx,%rsi,1)
  406c3e:	48 83 c0 02          	add    $0x2,%rax
  406c42:	4c 01 c1             	add    %r8,%rcx
  406c45:	48 39 c2             	cmp    %rax,%rdx
  406c48:	75 d6                	jne    406c20 <bmodd+0x5e0>
  406c4a:	48 83 7c 24 60 00    	cmpq   $0x0,0x60(%rsp)
  406c50:	48 8b 4c 24 40       	mov    0x40(%rsp),%rcx
  406c55:	0f 84 f5 fa ff ff    	je     406750 <bmodd+0x110>
  406c5b:	49 0f af c6          	imul   %r14,%rax
  406c5f:	48 01 c8             	add    %rcx,%rax
  406c62:	48 8b 4c 24 28       	mov    0x28(%rsp),%rcx
  406c67:	f2 0f 10 04 c1       	movsd  (%rcx,%rax,8),%xmm0
  406c6c:	f2 42 0f 5e 04 ef    	divsd  (%rdi,%r13,8),%xmm0
  406c72:	f2 0f 11 04 c1       	movsd  %xmm0,(%rcx,%rax,8)
  406c77:	e9 d4 fa ff ff       	jmpq   406750 <bmodd+0x110>
  406c7c:	48 81 c4 b8 00 00 00 	add    $0xb8,%rsp
  406c83:	5b                   	pop    %rbx
  406c84:	41 5c                	pop    %r12
  406c86:	41 5d                	pop    %r13
  406c88:	41 5e                	pop    %r14
  406c8a:	41 5f                	pop    %r15
  406c8c:	5d                   	pop    %rbp
  406c8d:	c3                   	retq   
  406c8e:	66 90                	xchg   %ax,%ax

0000000000406c90 <bmod>:
  406c90:	55                   	push   %rbp
  406c91:	41 57                	push   %r15
  406c93:	41 56                	push   %r14
  406c95:	41 55                	push   %r13
  406c97:	41 54                	push   %r12
  406c99:	53                   	push   %rbx
  406c9a:	48 83 ec 68          	sub    $0x68,%rsp
  406c9e:	4d 85 c9             	test   %r9,%r9
  406ca1:	0f 8e 1a 04 00 00    	jle    4070c1 <bmod+0x431>
  406ca7:	4d 85 c0             	test   %r8,%r8
  406caa:	0f 8e 11 04 00 00    	jle    4070c1 <bmod+0x431>
  406cb0:	49 89 d2             	mov    %rdx,%r10
  406cb3:	48 8b 84 24 a0 00 00 	mov    0xa0(%rsp),%rax
  406cba:	00 
  406cbb:	41 89 cf             	mov    %ecx,%r15d
  406cbe:	41 83 e7 01          	and    $0x1,%r15d
  406cc2:	49 89 ce             	mov    %rcx,%r14
  406cc5:	49 83 e6 fe          	and    $0xfffffffffffffffe,%r14
  406cc9:	49 8d 50 ff          	lea    -0x1(%r8),%rdx
  406ccd:	48 89 54 24 20       	mov    %rdx,0x20(%rsp)
  406cd2:	44 89 c2             	mov    %r8d,%edx
  406cd5:	83 e2 01             	and    $0x1,%edx
  406cd8:	48 89 54 24 40       	mov    %rdx,0x40(%rsp)
  406cdd:	4c 89 c2             	mov    %r8,%rdx
  406ce0:	48 83 e2 fe          	and    $0xfffffffffffffffe,%rdx
  406ce4:	48 89 54 24 30       	mov    %rdx,0x30(%rsp)
  406ce9:	48 8d 14 c5 00 00 00 	lea    0x0(,%rax,8),%rdx
  406cf0:	00 
  406cf1:	48 89 54 24 38       	mov    %rdx,0x38(%rsp)
  406cf6:	48 89 c2             	mov    %rax,%rdx
  406cf9:	48 c1 e2 04          	shl    $0x4,%rdx
  406cfd:	48 89 54 24 18       	mov    %rdx,0x18(%rsp)
  406d02:	48 8d 14 c6          	lea    (%rsi,%rax,8),%rdx
  406d06:	48 89 54 24 10       	mov    %rdx,0x10(%rsp)
  406d0b:	49 8d 14 c2          	lea    (%r10,%rax,8),%rdx
  406d0f:	48 89 54 24 28       	mov    %rdx,0x28(%rsp)
  406d14:	4c 8d 24 c7          	lea    (%rdi,%rax,8),%r12
  406d18:	48 89 74 24 08       	mov    %rsi,0x8(%rsp)
  406d1d:	49 89 fd             	mov    %rdi,%r13
  406d20:	31 d2                	xor    %edx,%edx
  406d22:	4c 89 4c 24 60       	mov    %r9,0x60(%rsp)
  406d27:	4c 89 44 24 58       	mov    %r8,0x58(%rsp)
  406d2c:	4c 89 54 24 50       	mov    %r10,0x50(%rsp)
  406d31:	48 89 74 24 48       	mov    %rsi,0x48(%rsp)
  406d36:	eb 30                	jmp    406d68 <bmod+0xd8>
  406d38:	0f 1f 84 00 00 00 00 	nopl   0x0(%rax,%rax,1)
  406d3f:	00 
  406d40:	48 8b 14 24          	mov    (%rsp),%rdx
  406d44:	48 83 c2 02          	add    $0x2,%rdx
  406d48:	48 8b 44 24 18       	mov    0x18(%rsp),%rax
  406d4d:	49 01 c5             	add    %rax,%r13
  406d50:	48 83 44 24 10 10    	addq   $0x10,0x10(%rsp)
  406d56:	48 83 44 24 08 10    	addq   $0x10,0x8(%rsp)
  406d5c:	49 01 c4             	add    %rax,%r12
  406d5f:	4c 39 ca             	cmp    %r9,%rdx
  406d62:	0f 84 59 03 00 00    	je     4070c1 <bmod+0x431>
  406d68:	48 89 14 24          	mov    %rdx,(%rsp)
  406d6c:	48 c7 c0 f8 ff ff ff 	mov    $0xfffffffffffffff8,%rax
  406d73:	64 48 8b 18          	mov    %fs:(%rax),%rbx
  406d77:	48 c7 c0 b0 ff ff ff 	mov    $0xffffffffffffffb0,%rax
  406d7e:	64 48 8b 28          	mov    %fs:(%rax),%rbp
  406d82:	0f 31                	rdtsc  
  406d84:	48 c1 e2 20          	shl    $0x20,%rdx
  406d88:	48 09 c2             	or     %rax,%rdx
  406d8b:	48 29 da             	sub    %rbx,%rdx
  406d8e:	48 39 ea             	cmp    %rbp,%rdx
  406d91:	72 27                	jb     406dba <bmod+0x12a>
  406d93:	31 c0                	xor    %eax,%eax
  406d95:	48 89 cb             	mov    %rcx,%rbx
  406d98:	48 89 fd             	mov    %rdi,%rbp
  406d9b:	e8 90 03 00 00       	callq  407130 <concord_rdtsc_func>
  406da0:	48 89 ef             	mov    %rbp,%rdi
  406da3:	48 8b 74 24 48       	mov    0x48(%rsp),%rsi
  406da8:	4c 8b 54 24 50       	mov    0x50(%rsp),%r10
  406dad:	4c 8b 44 24 58       	mov    0x58(%rsp),%r8
  406db2:	48 89 d9             	mov    %rbx,%rcx
  406db5:	4c 8b 4c 24 60       	mov    0x60(%rsp),%r9
  406dba:	48 85 c9             	test   %rcx,%rcx
  406dbd:	7e 81                	jle    406d40 <bmod+0xb0>
  406dbf:	48 83 f9 01          	cmp    $0x1,%rcx
  406dc3:	0f 85 97 00 00 00    	jne    406e60 <bmod+0x1d0>
  406dc9:	4c 8b 1c 24          	mov    (%rsp),%r11
  406dcd:	4c 89 d8             	mov    %r11,%rax
  406dd0:	48 0f af 84 24 a0 00 	imul   0xa0(%rsp),%rax
  406dd7:	00 00 
  406dd9:	48 83 7c 24 20 00    	cmpq   $0x0,0x20(%rsp)
  406ddf:	0f 84 1c 01 00 00    	je     406f01 <bmod+0x271>
  406de5:	31 d2                	xor    %edx,%edx
  406de7:	31 ed                	xor    %ebp,%ebp
  406de9:	eb 19                	jmp    406e04 <bmod+0x174>
  406deb:	0f 1f 44 00 00       	nopl   0x0(%rax,%rax,1)
  406df0:	48 83 c5 02          	add    $0x2,%rbp
  406df4:	48 03 54 24 18       	add    0x18(%rsp),%rdx
  406df9:	48 39 6c 24 30       	cmp    %rbp,0x30(%rsp)
  406dfe:	0f 84 ff 00 00 00    	je     406f03 <bmod+0x273>
  406e04:	4d 85 ff             	test   %r15,%r15
  406e07:	74 1f                	je     406e28 <bmod+0x198>
  406e09:	48 8b 5c 24 08       	mov    0x8(%rsp),%rbx
  406e0e:	f2 0f 10 04 13       	movsd  (%rbx,%rdx,1),%xmm0
  406e13:	f2 41 0f 10 0c 12    	movsd  (%r10,%rdx,1),%xmm1
  406e19:	f2 0f 59 04 c7       	mulsd  (%rdi,%rax,8),%xmm0
  406e1e:	f2 0f 5c c8          	subsd  %xmm0,%xmm1
  406e22:	f2 41 0f 11 0c 12    	movsd  %xmm1,(%r10,%rdx,1)
  406e28:	4d 85 ff             	test   %r15,%r15
  406e2b:	74 c3                	je     406df0 <bmod+0x160>
  406e2d:	48 8b 5c 24 10       	mov    0x10(%rsp),%rbx
  406e32:	f2 0f 10 04 13       	movsd  (%rbx,%rdx,1),%xmm0
  406e37:	48 8b 5c 24 28       	mov    0x28(%rsp),%rbx
  406e3c:	f2 0f 10 0c 13       	movsd  (%rbx,%rdx,1),%xmm1
  406e41:	f2 0f 59 04 c7       	mulsd  (%rdi,%rax,8),%xmm0
  406e46:	f2 0f 5c c8          	subsd  %xmm0,%xmm1
  406e4a:	f2 0f 11 0c 13       	movsd  %xmm1,(%rbx,%rdx,1)
  406e4f:	eb 9f                	jmp    406df0 <bmod+0x160>
  406e51:	66 2e 0f 1f 84 00 00 	nopw   %cs:0x0(%rax,%rax,1)
  406e58:	00 00 00 
  406e5b:	0f 1f 44 00 00       	nopl   0x0(%rax,%rax,1)
  406e60:	4c 89 d0             	mov    %r10,%rax
  406e63:	31 ed                	xor    %ebp,%ebp
  406e65:	4c 8b 1c 24          	mov    (%rsp),%r11
  406e69:	eb 17                	jmp    406e82 <bmod+0x1f2>
  406e6b:	0f 1f 44 00 00       	nopl   0x0(%rax,%rax,1)
  406e70:	48 83 c5 01          	add    $0x1,%rbp
  406e74:	48 03 44 24 38       	add    0x38(%rsp),%rax
  406e79:	4c 39 c5             	cmp    %r8,%rbp
  406e7c:	0f 84 be 00 00 00    	je     406f40 <bmod+0x2b0>
  406e82:	48 89 ea             	mov    %rbp,%rdx
  406e85:	48 0f af 94 24 a0 00 	imul   0xa0(%rsp),%rdx
  406e8c:	00 00 
  406e8e:	4c 01 da             	add    %r11,%rdx
  406e91:	f2 0f 10 04 d6       	movsd  (%rsi,%rdx,8),%xmm0
  406e96:	31 db                	xor    %ebx,%ebx
  406e98:	0f 1f 84 00 00 00 00 	nopl   0x0(%rax,%rax,1)
  406e9f:	00 
  406ea0:	48 89 da             	mov    %rbx,%rdx
  406ea3:	f2 41 0f 10 4c dd 00 	movsd  0x0(%r13,%rbx,8),%xmm1
  406eaa:	f2 0f 59 c8          	mulsd  %xmm0,%xmm1
  406eae:	f2 0f 10 14 d8       	movsd  (%rax,%rbx,8),%xmm2
  406eb3:	f2 0f 5c d1          	subsd  %xmm1,%xmm2
  406eb7:	f2 0f 10 4c d8 08    	movsd  0x8(%rax,%rbx,8),%xmm1
  406ebd:	f2 0f 11 14 d8       	movsd  %xmm2,(%rax,%rbx,8)
  406ec2:	f2 41 0f 10 54 dd 08 	movsd  0x8(%r13,%rbx,8),%xmm2
  406ec9:	f2 0f 59 d0          	mulsd  %xmm0,%xmm2
  406ecd:	f2 0f 5c ca          	subsd  %xmm2,%xmm1
  406ed1:	f2 0f 11 4c d8 08    	movsd  %xmm1,0x8(%rax,%rbx,8)
  406ed7:	48 83 c3 02          	add    $0x2,%rbx
  406edb:	49 39 de             	cmp    %rbx,%r14
  406ede:	75 c0                	jne    406ea0 <bmod+0x210>
  406ee0:	4d 85 ff             	test   %r15,%r15
  406ee3:	74 8b                	je     406e70 <bmod+0x1e0>
  406ee5:	f2 0f 10 4c d0 10    	movsd  0x10(%rax,%rdx,8),%xmm1
  406eeb:	f2 41 0f 59 44 d5 10 	mulsd  0x10(%r13,%rdx,8),%xmm0
  406ef2:	f2 0f 5c c8          	subsd  %xmm0,%xmm1
  406ef6:	f2 0f 11 4c d0 10    	movsd  %xmm1,0x10(%rax,%rdx,8)
  406efc:	e9 6f ff ff ff       	jmpq   406e70 <bmod+0x1e0>
  406f01:	31 ed                	xor    %ebp,%ebp
  406f03:	48 83 7c 24 40 00    	cmpq   $0x0,0x40(%rsp)
  406f09:	74 35                	je     406f40 <bmod+0x2b0>
  406f0b:	4d 85 ff             	test   %r15,%r15
  406f0e:	74 30                	je     406f40 <bmod+0x2b0>
  406f10:	48 0f af ac 24 a0 00 	imul   0xa0(%rsp),%rbp
  406f17:	00 00 
  406f19:	49 8d 14 2b          	lea    (%r11,%rbp,1),%rdx
  406f1d:	f2 0f 10 04 d6       	movsd  (%rsi,%rdx,8),%xmm0
  406f22:	f2 41 0f 10 0c ea    	movsd  (%r10,%rbp,8),%xmm1
  406f28:	f2 0f 59 04 c7       	mulsd  (%rdi,%rax,8),%xmm0
  406f2d:	f2 0f 5c c8          	subsd  %xmm0,%xmm1
  406f31:	f2 41 0f 11 0c ea    	movsd  %xmm1,(%r10,%rbp,8)
  406f37:	66 0f 1f 84 00 00 00 	nopw   0x0(%rax,%rax,1)
  406f3e:	00 00 
  406f40:	49 83 cb 01          	or     $0x1,%r11
  406f44:	48 83 f9 01          	cmp    $0x1,%rcx
  406f48:	0f 85 92 00 00 00    	jne    406fe0 <bmod+0x350>
  406f4e:	4c 89 db             	mov    %r11,%rbx
  406f51:	48 0f af 9c 24 a0 00 	imul   0xa0(%rsp),%rbx
  406f58:	00 00 
  406f5a:	48 83 7c 24 20 00    	cmpq   $0x0,0x20(%rsp)
  406f60:	0f 84 1a 01 00 00    	je     407080 <bmod+0x3f0>
  406f66:	31 ed                	xor    %ebp,%ebp
  406f68:	31 d2                	xor    %edx,%edx
  406f6a:	eb 18                	jmp    406f84 <bmod+0x2f4>
  406f6c:	0f 1f 40 00          	nopl   0x0(%rax)
  406f70:	48 83 c2 02          	add    $0x2,%rdx
  406f74:	48 03 6c 24 18       	add    0x18(%rsp),%rbp
  406f79:	48 39 54 24 30       	cmp    %rdx,0x30(%rsp)
  406f7e:	0f 84 fe 00 00 00    	je     407082 <bmod+0x3f2>
  406f84:	4d 85 ff             	test   %r15,%r15
  406f87:	74 20                	je     406fa9 <bmod+0x319>
  406f89:	48 8b 44 24 08       	mov    0x8(%rsp),%rax
  406f8e:	f2 0f 10 44 28 08    	movsd  0x8(%rax,%rbp,1),%xmm0
  406f94:	f2 41 0f 10 0c 2a    	movsd  (%r10,%rbp,1),%xmm1
  406f9a:	f2 0f 59 04 df       	mulsd  (%rdi,%rbx,8),%xmm0
  406f9f:	f2 0f 5c c8          	subsd  %xmm0,%xmm1
  406fa3:	f2 41 0f 11 0c 2a    	movsd  %xmm1,(%r10,%rbp,1)
  406fa9:	4d 85 ff             	test   %r15,%r15
  406fac:	74 c2                	je     406f70 <bmod+0x2e0>
  406fae:	48 8b 44 24 10       	mov    0x10(%rsp),%rax
  406fb3:	f2 0f 10 44 28 08    	movsd  0x8(%rax,%rbp,1),%xmm0
  406fb9:	48 8b 44 24 28       	mov    0x28(%rsp),%rax
  406fbe:	f2 0f 10 0c 28       	movsd  (%rax,%rbp,1),%xmm1
  406fc3:	f2 0f 59 04 df       	mulsd  (%rdi,%rbx,8),%xmm0
  406fc8:	f2 0f 5c c8          	subsd  %xmm0,%xmm1
  406fcc:	f2 0f 11 0c 28       	movsd  %xmm1,(%rax,%rbp,1)
  406fd1:	eb 9d                	jmp    406f70 <bmod+0x2e0>
  406fd3:	66 2e 0f 1f 84 00 00 	nopw   %cs:0x0(%rax,%rax,1)
  406fda:	00 00 00 
  406fdd:	0f 1f 00             	nopl   (%rax)
  406fe0:	4c 89 d3             	mov    %r10,%rbx
  406fe3:	31 d2                	xor    %edx,%edx
  406fe5:	eb 1b                	jmp    407002 <bmod+0x372>
  406fe7:	66 0f 1f 84 00 00 00 	nopw   0x0(%rax,%rax,1)
  406fee:	00 00 
  406ff0:	48 83 c2 01          	add    $0x1,%rdx
  406ff4:	48 03 5c 24 38       	add    0x38(%rsp),%rbx
  406ff9:	4c 39 c2             	cmp    %r8,%rdx
  406ffc:	0f 84 3e fd ff ff    	je     406d40 <bmod+0xb0>
  407002:	48 89 d0             	mov    %rdx,%rax
  407005:	48 0f af 84 24 a0 00 	imul   0xa0(%rsp),%rax
  40700c:	00 00 
  40700e:	4c 01 d8             	add    %r11,%rax
  407011:	f2 0f 10 04 c6       	movsd  (%rsi,%rax,8),%xmm0
  407016:	31 c0                	xor    %eax,%eax
  407018:	0f 1f 84 00 00 00 00 	nopl   0x0(%rax,%rax,1)
  40701f:	00 
  407020:	48 89 c5             	mov    %rax,%rbp
  407023:	f2 41 0f 10 0c c4    	movsd  (%r12,%rax,8),%xmm1
  407029:	f2 0f 59 c8          	mulsd  %xmm0,%xmm1
  40702d:	f2 0f 10 14 c3       	movsd  (%rbx,%rax,8),%xmm2
  407032:	f2 0f 5c d1          	subsd  %xmm1,%xmm2
  407036:	f2 0f 10 4c c3 08    	movsd  0x8(%rbx,%rax,8),%xmm1
  40703c:	f2 0f 11 14 c3       	movsd  %xmm2,(%rbx,%rax,8)
  407041:	f2 41 0f 10 54 c4 08 	movsd  0x8(%r12,%rax,8),%xmm2
  407048:	f2 0f 59 d0          	mulsd  %xmm0,%xmm2
  40704c:	f2 0f 5c ca          	subsd  %xmm2,%xmm1
  407050:	f2 0f 11 4c c3 08    	movsd  %xmm1,0x8(%rbx,%rax,8)
  407056:	48 83 c0 02          	add    $0x2,%rax
  40705a:	49 39 c6             	cmp    %rax,%r14
  40705d:	75 c1                	jne    407020 <bmod+0x390>
  40705f:	4d 85 ff             	test   %r15,%r15
  407062:	74 8c                	je     406ff0 <bmod+0x360>
  407064:	f2 0f 10 4c eb 10    	movsd  0x10(%rbx,%rbp,8),%xmm1
  40706a:	f2 41 0f 59 44 ec 10 	mulsd  0x10(%r12,%rbp,8),%xmm0
  407071:	f2 0f 5c c8          	subsd  %xmm0,%xmm1
  407075:	f2 0f 11 4c eb 10    	movsd  %xmm1,0x10(%rbx,%rbp,8)
  40707b:	e9 70 ff ff ff       	jmpq   406ff0 <bmod+0x360>
  407080:	31 d2                	xor    %edx,%edx
  407082:	41 f6 c0 01          	test   $0x1,%r8b
  407086:	0f 84 b4 fc ff ff    	je     406d40 <bmod+0xb0>
  40708c:	4d 85 ff             	test   %r15,%r15
  40708f:	0f 84 ab fc ff ff    	je     406d40 <bmod+0xb0>
  407095:	48 0f af 94 24 a0 00 	imul   0xa0(%rsp),%rdx
  40709c:	00 00 
  40709e:	49 01 d3             	add    %rdx,%r11
  4070a1:	f2 42 0f 10 04 de    	movsd  (%rsi,%r11,8),%xmm0
  4070a7:	f2 41 0f 10 0c d2    	movsd  (%r10,%rdx,8),%xmm1
  4070ad:	f2 0f 59 04 df       	mulsd  (%rdi,%rbx,8),%xmm0
  4070b2:	f2 0f 5c c8          	subsd  %xmm0,%xmm1
  4070b6:	f2 41 0f 11 0c d2    	movsd  %xmm1,(%r10,%rdx,8)
  4070bc:	e9 7f fc ff ff       	jmpq   406d40 <bmod+0xb0>
  4070c1:	48 83 c4 68          	add    $0x68,%rsp
  4070c5:	5b                   	pop    %rbx
  4070c6:	41 5c                	pop    %r12
  4070c8:	41 5d                	pop    %r13
  4070ca:	41 5e                	pop    %r14
  4070cc:	41 5f                	pop    %r15
  4070ce:	5d                   	pop    %rbp
  4070cf:	c3                   	retq   

00000000004070d0 <BlockOwner>:
  4070d0:	48 8d 04 37          	lea    (%rdi,%rsi,1),%rax
  4070d4:	48 99                	cqto   
  4070d6:	48 f7 3d 5b 20 20 00 	idivq  0x20205b(%rip)        # 609138 <P>
  4070dd:	48 89 d0             	mov    %rdx,%rax
  4070e0:	c3                   	retq   
  4070e1:	66 2e 0f 1f 84 00 00 	nopw   %cs:0x0(%rax,%rax,1)
  4070e8:	00 00 00 
  4070eb:	0f 1f 44 00 00       	nopl   0x0(%rax,%rax,1)

00000000004070f0 <BlockOwnerColumn>:
  4070f0:	48 89 f8             	mov    %rdi,%rax
  4070f3:	48 99                	cqto   
  4070f5:	48 f7 3d 3c 20 20 00 	idivq  0x20203c(%rip)        # 609138 <P>
  4070fc:	48 89 d0             	mov    %rdx,%rax
  4070ff:	c3                   	retq   

0000000000407100 <BlockOwnerRow>:
  407100:	48 89 f0             	mov    %rsi,%rax
  407103:	48 8b 0d 2e 20 20 00 	mov    0x20202e(%rip),%rcx        # 609138 <P>
  40710a:	48 99                	cqto   
  40710c:	48 f7 f9             	idiv   %rcx
  40710f:	48 89 c8             	mov    %rcx,%rax
  407112:	48 c1 e8 3f          	shr    $0x3f,%rax
  407116:	48 01 c8             	add    %rcx,%rax
  407119:	48 d1 f8             	sar    %rax
  40711c:	48 01 d0             	add    %rdx,%rax
  40711f:	48 99                	cqto   
  407121:	48 f7 f9             	idiv   %rcx
  407124:	48 89 d0             	mov    %rdx,%rax
  407127:	c3                   	retq   
  407128:	0f 1f 84 00 00 00 00 	nopl   0x0(%rax,%rax,1)
  40712f:	00 

0000000000407130 <concord_rdtsc_func>:
  407130:	41 56                	push   %r14
  407132:	53                   	push   %rbx
  407133:	50                   	push   %rax
  407134:	bf 3d 7e 40 00       	mov    $0x407e3d,%edi
  407139:	e8 72 9d ff ff       	callq  400eb0 <puts@plt>
  40713e:	48 8b 0d 73 20 20 00 	mov    0x202073(%rip),%rcx        # 6091b8 <concord_timestamps_counter>
  407145:	0f 31                	rdtsc  
  407147:	48 c1 e2 20          	shl    $0x20,%rdx
  40714b:	48 09 c2             	or     %rax,%rdx
  40714e:	48 81 f9 9f 86 01 00 	cmp    $0x1869f,%rcx
  407155:	77 34                	ja     40718b <concord_rdtsc_func+0x5b>
  407157:	48 8b 05 5a 20 20 00 	mov    0x20205a(%rip),%rax        # 6091b8 <concord_timestamps_counter>
  40715e:	48 8d 48 01          	lea    0x1(%rax),%rcx
  407162:	48 89 0d 4f 20 20 00 	mov    %rcx,0x20204f(%rip)        # 6091b8 <concord_timestamps_counter>
  407169:	48 89 14 c5 20 94 60 	mov    %rdx,0x609420(,%rax,8)
  407170:	00 
  407171:	0f 31                	rdtsc  
  407173:	48 c1 e2 20          	shl    $0x20,%rdx
  407177:	48 09 c2             	or     %rax,%rdx
  40717a:	64 48 89 14 25 f8 ff 	mov    %rdx,%fs:0xfffffffffffffff8
  407181:	ff ff 
  407183:	48 83 c4 08          	add    $0x8,%rsp
  407187:	5b                   	pop    %rbx
  407188:	41 5e                	pop    %r14
  40718a:	c3                   	retq   
  40718b:	64 48 89 14 25 f8 ff 	mov    %rdx,%fs:0xfffffffffffffff8
  407192:	ff ff 
  407194:	48 83 3d 24 20 20 00 	cmpq   $0x1,0x202024(%rip)        # 6091c0 <concord_timestamp_break_flag>
  40719b:	01 
  40719c:	74 e5                	je     407183 <concord_rdtsc_func+0x53>
  40719e:	48 c7 05 17 20 20 00 	movq   $0x1,0x202017(%rip)        # 6091c0 <concord_timestamp_break_flag>
  4071a5:	01 00 00 00 
  4071a9:	48 8b 3d 98 1f 20 00 	mov    0x201f98(%rip),%rdi        # 609148 <concord_timestamp_log>
  4071b0:	be 36 7e 40 00       	mov    $0x407e36,%esi
  4071b5:	e8 36 9e ff ff       	callq  400ff0 <fopen@plt>
  4071ba:	49 89 c6             	mov    %rax,%r14
  4071bd:	48 c7 c3 00 cb f3 ff 	mov    $0xfffffffffff3cb00,%rbx
  4071c4:	48 8b 93 28 c9 6c 00 	mov    0x6cc928(%rbx),%rdx
  4071cb:	48 2b 93 20 c9 6c 00 	sub    0x6cc920(%rbx),%rdx
  4071d2:	be 38 7e 40 00       	mov    $0x407e38,%esi
  4071d7:	4c 89 f7             	mov    %r14,%rdi
  4071da:	31 c0                	xor    %eax,%eax
  4071dc:	e8 6f 9d ff ff       	callq  400f50 <fprintf@plt>
  4071e1:	48 83 c3 08          	add    $0x8,%rbx
  4071e5:	75 dd                	jne    4071c4 <concord_rdtsc_func+0x94>
  4071e7:	4c 89 f7             	mov    %r14,%rdi
  4071ea:	e8 f1 9c ff ff       	callq  400ee0 <fclose@plt>
  4071ef:	bf 50 7e 40 00       	mov    $0x407e50,%edi
  4071f4:	48 83 c4 08          	add    $0x8,%rsp
  4071f8:	5b                   	pop    %rbx
  4071f9:	41 5e                	pop    %r14
  4071fb:	e9 b0 9c ff ff       	jmpq   400eb0 <puts@plt>

0000000000407200 <concord_func>:
  407200:	bf 6b 7e 40 00       	mov    $0x407e6b,%edi
  407205:	e9 a6 9c ff ff       	jmpq   400eb0 <puts@plt>
  40720a:	66 0f 1f 44 00 00    	nopw   0x0(%rax,%rax,1)

0000000000407210 <concord_register_dispatcher>:
  407210:	41 56                	push   %r14
  407212:	53                   	push   %rbx
  407213:	48 83 ec 18          	sub    $0x18,%rsp
  407217:	bf 78 7e 40 00       	mov    $0x407e78,%edi
  40721c:	e8 8f 9c ff ff       	callq  400eb0 <puts@plt>
  407221:	bb 2c 01 00 00       	mov    $0x12c,%ebx
  407226:	4c 8d 74 24 08       	lea    0x8(%rsp),%r14
  40722b:	0f 1f 44 00 00       	nopl   0x0(%rax,%rax,1)
  407230:	90                   	nop
  407231:	bf 01 00 00 00       	mov    $0x1,%edi
  407236:	4c 89 f6             	mov    %r14,%rsi
  407239:	e8 82 9c ff ff       	callq  400ec0 <clock_gettime@plt>
  40723e:	0f 31                	rdtsc  
  407240:	48 83 c3 ff          	add    $0xffffffffffffffff,%rbx
  407244:	75 ea                	jne    407230 <concord_register_dispatcher+0x20>
  407246:	48 83 c4 18          	add    $0x18,%rsp
  40724a:	5b                   	pop    %rbx
  40724b:	41 5e                	pop    %r14
  40724d:	c3                   	retq   
  40724e:	66 90                	xchg   %ax,%ax

0000000000407250 <concord_unregister_dispatcher>:
  407250:	c6 05 51 1f 20 00 01 	movb   $0x1,0x201f51(%rip)        # 6091a8 <finish_dispatcher>
  407257:	bf 97 7e 40 00       	mov    $0x407e97,%edi
  40725c:	e9 4f 9c ff ff       	jmpq   400eb0 <puts@plt>
  407261:	66 2e 0f 1f 84 00 00 	nopw   %cs:0x0(%rax,%rax,1)
  407268:	00 00 00 
  40726b:	0f 1f 44 00 00       	nopl   0x0(%rax,%rax,1)

0000000000407270 <concord_set_preempt_flag>:
  407270:	64 89 3c 25 f0 ff ff 	mov    %edi,%fs:0xfffffffffffffff0
  407277:	ff 
  407278:	c3                   	retq   
  407279:	0f 1f 80 00 00 00 00 	nopl   0x0(%rax)

0000000000407280 <concord_disable>:
  407280:	83 05 29 1f 20 00 ff 	addl   $0xffffffff,0x201f29(%rip)        # 6091b0 <concord_lock_counter>
  407287:	c3                   	retq   
  407288:	0f 1f 84 00 00 00 00 	nopl   0x0(%rax,%rax,1)
  40728f:	00 

0000000000407290 <concord_enable>:
  407290:	83 05 19 1f 20 00 01 	addl   $0x1,0x201f19(%rip)        # 6091b0 <concord_lock_counter>
  407297:	c3                   	retq   
  407298:	0f 1f 84 00 00 00 00 	nopl   0x0(%rax,%rax,1)
  40729f:	00 

00000000004072a0 <initial_setup>:
  4072a0:	41 56                	push   %r14
  4072a2:	53                   	push   %rbx
  4072a3:	48 83 ec 18          	sub    $0x18,%rsp
  4072a7:	bb 2c 01 00 00       	mov    $0x12c,%ebx
  4072ac:	4c 8d 74 24 08       	lea    0x8(%rsp),%r14
  4072b1:	66 2e 0f 1f 84 00 00 	nopw   %cs:0x0(%rax,%rax,1)
  4072b8:	00 00 00 
  4072bb:	0f 1f 44 00 00       	nopl   0x0(%rax,%rax,1)
  4072c0:	90                   	nop
  4072c1:	bf 01 00 00 00       	mov    $0x1,%edi
  4072c6:	4c 89 f6             	mov    %r14,%rsi
  4072c9:	e8 f2 9b ff ff       	callq  400ec0 <clock_gettime@plt>
  4072ce:	0f 31                	rdtsc  
  4072d0:	48 83 c3 ff          	add    $0xffffffffffffffff,%rbx
  4072d4:	75 ea                	jne    4072c0 <initial_setup+0x20>
  4072d6:	48 83 c4 18          	add    $0x18,%rsp
  4072da:	5b                   	pop    %rbx
  4072db:	41 5e                	pop    %r14
  4072dd:	c3                   	retq   
  4072de:	66 90                	xchg   %ax,%ax

00000000004072e0 <dispatcher>:
  4072e0:	50                   	push   %rax
  4072e1:	64 83 3c 25 f0 ff ff 	cmpl   $0x0,%fs:0xfffffffffffffff0
  4072e8:	ff 00 
  4072ea:	75 24                	jne    407310 <dispatcher+0x30>
  4072ec:	eb 2e                	jmp    40731c <dispatcher+0x3c>
  4072ee:	66 90                	xchg   %ax,%ax
  4072f0:	64 c7 04 25 f0 ff ff 	movl   $0x1,%fs:0xfffffffffffffff0
  4072f7:	ff 01 00 00 00 
  4072fc:	80 3d a5 1e 20 00 01 	cmpb   $0x1,0x201ea5(%rip)        # 6091a8 <finish_dispatcher>
  407303:	0f 84 bf 00 00 00    	je     4073c8 <dispatcher+0xe8>
  407309:	0f 1f 80 00 00 00 00 	nopl   0x0(%rax)
  407310:	90                   	nop
  407311:	64 83 3c 25 f0 ff ff 	cmpl   $0x0,%fs:0xfffffffffffffff0
  407318:	ff 00 
  40731a:	75 f4                	jne    407310 <dispatcher+0x30>
  40731c:	66 0f 6f 15 fc 01 00 	movdqa 0x1fc(%rip),%xmm2        # 407520 <_IO_stdin_used+0xc0>
  407323:	00 
  407324:	66 0f 28 1d 04 02 00 	movapd 0x204(%rip),%xmm3        # 407530 <_IO_stdin_used+0xd0>
  40732b:	00 
  40732c:	f2 0f 10 25 bc 0a 00 	movsd  0xabc(%rip),%xmm4        # 407df0 <_IO_stdin_used+0x990>
  407333:	00 
  407334:	f2 0f 10 2d bc 0a 00 	movsd  0xabc(%rip),%xmm5        # 407df8 <_IO_stdin_used+0x998>
  40733b:	00 
  40733c:	0f 31                	rdtsc  
  40733e:	48 89 d1             	mov    %rdx,%rcx
  407341:	48 c1 e1 20          	shl    $0x20,%rcx
  407345:	48 09 c1             	or     %rax,%rcx
  407348:	0f 1f 84 00 00 00 00 	nopl   0x0(%rax,%rax,1)
  40734f:	00 
  407350:	0f 31                	rdtsc  
  407352:	48 c1 e2 20          	shl    $0x20,%rdx
  407356:	48 09 c2             	or     %rax,%rdx
  407359:	48 29 ca             	sub    %rcx,%rdx
  40735c:	66 48 0f 6e c2       	movq   %rdx,%xmm0
  407361:	66 0f 62 c2          	punpckldq %xmm2,%xmm0
  407365:	66 0f 5c c3          	subpd  %xmm3,%xmm0
  407369:	66 0f 28 c8          	movapd %xmm0,%xmm1
  40736d:	66 0f 15 c8          	unpckhpd %xmm0,%xmm1
  407371:	f2 0f 58 c8          	addsd  %xmm0,%xmm1
  407375:	f2 0f 5e cc          	divsd  %xmm4,%xmm1
  407379:	66 0f 2e e9          	ucomisd %xmm1,%xmm5
  40737d:	0f 86 6d ff ff ff    	jbe    4072f0 <dispatcher+0x10>
  407383:	90                   	nop
  407384:	90                   	nop
  407385:	90                   	nop
  407386:	83 3d 1f 1e 20 00 00 	cmpl   $0x0,0x201e1f(%rip)        # 6091ac <concord_timer_reset>
  40738d:	74 c1                	je     407350 <dispatcher+0x70>
  40738f:	bf c3 7e 40 00       	mov    $0x407ec3,%edi
  407394:	e8 17 9b ff ff       	callq  400eb0 <puts@plt>
  407399:	f2 0f 10 2d 57 0a 00 	movsd  0xa57(%rip),%xmm5        # 407df8 <_IO_stdin_used+0x998>
  4073a0:	00 
  4073a1:	f2 0f 10 25 47 0a 00 	movsd  0xa47(%rip),%xmm4        # 407df0 <_IO_stdin_used+0x990>
  4073a8:	00 
  4073a9:	66 0f 28 1d 7f 01 00 	movapd 0x17f(%rip),%xmm3        # 407530 <_IO_stdin_used+0xd0>
  4073b0:	00 
  4073b1:	66 0f 6f 15 67 01 00 	movdqa 0x167(%rip),%xmm2        # 407520 <_IO_stdin_used+0xc0>
  4073b8:	00 
  4073b9:	c7 05 e9 1d 20 00 00 	movl   $0x0,0x201de9(%rip)        # 6091ac <concord_timer_reset>
  4073c0:	00 00 00 
  4073c3:	e9 74 ff ff ff       	jmpq   40733c <dispatcher+0x5c>
  4073c8:	bf af 7e 40 00       	mov    $0x407eaf,%edi
  4073cd:	e8 de 9a ff ff       	callq  400eb0 <puts@plt>
  4073d2:	31 c0                	xor    %eax,%eax
  4073d4:	59                   	pop    %rcx
  4073d5:	c3                   	retq   
  4073d6:	66 2e 0f 1f 84 00 00 	nopw   %cs:0x0(%rax,%rax,1)
  4073dd:	00 00 00 

00000000004073e0 <__libc_csu_init>:
  4073e0:	41 57                	push   %r15
  4073e2:	41 56                	push   %r14
  4073e4:	49 89 d7             	mov    %rdx,%r15
  4073e7:	41 55                	push   %r13
  4073e9:	41 54                	push   %r12
  4073eb:	4c 8d 25 ce 19 20 00 	lea    0x2019ce(%rip),%r12        # 608dc0 <__frame_dummy_init_array_entry>
  4073f2:	55                   	push   %rbp
  4073f3:	48 8d 2d ce 19 20 00 	lea    0x2019ce(%rip),%rbp        # 608dc8 <__init_array_end>
  4073fa:	53                   	push   %rbx
  4073fb:	41 89 fd             	mov    %edi,%r13d
  4073fe:	49 89 f6             	mov    %rsi,%r14
  407401:	4c 29 e5             	sub    %r12,%rbp
  407404:	48 83 ec 08          	sub    $0x8,%rsp
  407408:	48 c1 fd 03          	sar    $0x3,%rbp
  40740c:	e8 27 9a ff ff       	callq  400e38 <_init>
  407411:	48 85 ed             	test   %rbp,%rbp
  407414:	74 20                	je     407436 <__libc_csu_init+0x56>
  407416:	31 db                	xor    %ebx,%ebx
  407418:	0f 1f 84 00 00 00 00 	nopl   0x0(%rax,%rax,1)
  40741f:	00 
  407420:	4c 89 fa             	mov    %r15,%rdx
  407423:	4c 89 f6             	mov    %r14,%rsi
  407426:	44 89 ef             	mov    %r13d,%edi
  407429:	41 ff 14 dc          	callq  *(%r12,%rbx,8)
  40742d:	48 83 c3 01          	add    $0x1,%rbx
  407431:	48 39 dd             	cmp    %rbx,%rbp
  407434:	75 ea                	jne    407420 <__libc_csu_init+0x40>
  407436:	48 83 c4 08          	add    $0x8,%rsp
  40743a:	5b                   	pop    %rbx
  40743b:	5d                   	pop    %rbp
  40743c:	41 5c                	pop    %r12
  40743e:	41 5d                	pop    %r13
  407440:	41 5e                	pop    %r14
  407442:	41 5f                	pop    %r15
  407444:	c3                   	retq   
  407445:	90                   	nop
  407446:	66 2e 0f 1f 84 00 00 	nopw   %cs:0x0(%rax,%rax,1)
  40744d:	00 00 00 

0000000000407450 <__libc_csu_fini>:
  407450:	f3 c3                	repz retq 

Disassembly of section .fini:

0000000000407454 <_fini>:
  407454:	48 83 ec 08          	sub    $0x8,%rsp
  407458:	48 83 c4 08          	add    $0x8,%rsp
  40745c:	c3                   	retq   
